; Listing generated by Microsoft (R) Optimizing Compiler Version 19.29.30038.1 

	TITLE	C:\TouchGFXProjects\MyApplication_13\TouchGFX\build\Debug\obj\BitmapDatabase.obj
	.686P
	.XMM
	include listing.inc
	.model	flat

INCLUDELIB MSVCRTD
INCLUDELIB OLDNAMES

EXTRN	?image_blue_buttons_round_icon_button@@3QBEB:BYTE ; image_blue_buttons_round_icon_button
EXTRN	?image_blue_buttons_round_icon_button_pressed@@3QBEB:BYTE ; image_blue_buttons_round_icon_button_pressed
EXTRN	?image_blue_clocks_backgrounds_clock_classic_background@@3QBEB:BYTE ; image_blue_clocks_backgrounds_clock_classic_background
EXTRN	?image_blue_clocks_hands_clock_classic_hour_hand@@3QBEB:BYTE ; image_blue_clocks_hands_clock_classic_hour_hand
EXTRN	?image_blue_clocks_hands_clock_classic_minute_hand@@3QBEB:BYTE ; image_blue_clocks_hands_clock_classic_minute_hand
EXTRN	?image_blue_clocks_hands_clock_classic_second_hand@@3QBEB:BYTE ; image_blue_clocks_hands_clock_classic_second_hand
EXTRN	?image_blue_icons_back_arrow_32@@3QBEB:BYTE	; image_blue_icons_back_arrow_32
EXTRN	?image_blue_icons_next_arrow_32@@3QBEB:BYTE	; image_blue_icons_next_arrow_32
EXTRN	?image_blue_icons_settings_32@@3QBEB:BYTE	; image_blue_icons_settings_32
EXTRN	?image_dark_buttons_round_icon_button_pressed@@3QBEB:BYTE ; image_dark_buttons_round_icon_button_pressed
EXTRN	?image_weather_background_1@@3QBEB:BYTE		; image_weather_background_1
EXTRN	?image_weather_background_2@@3QBEB:BYTE		; image_weather_background_2
EXTRN	?image_weather_background_3@@3QBEB:BYTE		; image_weather_background_3
msvcjmc	SEGMENT
__887A36F9_Types@hpp DB 01H
__8CC2C7DC_Bitmap@hpp DB 01H
__E7D60DDA_BitmapDatabase@cpp DB 01H
msvcjmc	ENDS
CONST	SEGMENT
?bitmap_database@@3QBUBitmapData@Bitmap@touchgfx@@B DD FLAT:?image_blue_buttons_round_icon_button@@3QBEB ; bitmap_database
	DD	00H
	DW	03cH
	DW	03cH
	DW	0dH
	DW	0bH
	DW	022H
	DW	04024H
	DD	FLAT:?image_blue_buttons_round_icon_button_pressed@@3QBEB
	DD	00H
	DW	03cH
	DW	03cH
	DW	0dH
	DW	0bH
	DW	022H
	DW	04024H
	DD	FLAT:?image_blue_clocks_backgrounds_clock_classic_background@@3QBEB
	DD	00H
	DW	0e9H
	DW	0f3H
	DW	02eH
	DW	032H
	DW	08fH
	DW	0408eH
	DD	FLAT:?image_blue_clocks_hands_clock_classic_hour_hand@@3QBEB
	DD	00H
	DW	05H
	DW	02dH
	DW	02H
	DW	04H
	DW	01H
	DW	04027H
	DD	FLAT:?image_blue_clocks_hands_clock_classic_minute_hand@@3QBEB
	DD	00H
	DW	05H
	DW	041H
	DW	02H
	DW	02H
	DW	01H
	DW	0403dH
	DD	FLAT:?image_blue_clocks_hands_clock_classic_second_hand@@3QBEB
	DD	00H
	DW	09H
	DW	067H
	DW	04H
	DW	01H
	DW	01H
	DW	0405eH
	DD	FLAT:?image_blue_icons_back_arrow_32@@3QBEB
	DD	00H
	DW	011H
	DW	01eH
	DW	03H
	DW	0bH
	DW	04H
	DW	04008H
	DD	FLAT:?image_blue_icons_next_arrow_32@@3QBEB
	DD	00H
	DW	011H
	DW	01eH
	DW	0aH
	DW	0bH
	DW	04H
	DW	04008H
	DD	FLAT:?image_blue_icons_settings_32@@3QBEB
	DD	00H
	DW	01eH
	DW	01eH
	DW	01cH
	DW	0cH
	DW	01H
	DW	04006H
	DD	FLAT:?image_dark_buttons_round_icon_button_pressed@@3QBEB
	DD	00H
	DW	03cH
	DW	03cH
	DW	0dH
	DW	0bH
	DW	022H
	DW	04024H
	DD	FLAT:?image_weather_background_1@@3QBEB
	DD	00H
	DW	0f0H
	DW	0caH
	DW	00H
	DW	00H
	DW	0f0H
	DW	0caH
	DD	FLAT:?image_weather_background_2@@3QBEB
	DD	00H
	DW	0f0H
	DW	0caH
	DW	00H
	DW	00H
	DW	0f0H
	DW	0caH
	DD	FLAT:?image_weather_background_3@@3QBEB
	DD	00H
	DW	0f0H
	DW	0caH
	DW	00H
	DW	00H
	DW	0f0H
	DW	0caH
CONST	ENDS
PUBLIC	?getInstance@BitmapDatabase@@YAPBUBitmapData@Bitmap@touchgfx@@XZ ; BitmapDatabase::getInstance
PUBLIC	?getInstanceSize@BitmapDatabase@@YAGXZ		; BitmapDatabase::getInstanceSize
PUBLIC	__JustMyCode_Default
EXTRN	@__CheckForDebuggerJustMyCode@4:PROC
EXTRN	__RTC_CheckEsp:PROC
EXTRN	__RTC_InitBase:PROC
EXTRN	__RTC_Shutdown:PROC
;	COMDAT rtc$TMZ
rtc$TMZ	SEGMENT
__RTC_Shutdown.rtc$TMZ DD FLAT:__RTC_Shutdown
rtc$TMZ	ENDS
;	COMDAT rtc$IMZ
rtc$IMZ	SEGMENT
__RTC_InitBase.rtc$IMZ DD FLAT:__RTC_InitBase
rtc$IMZ	ENDS
; Function compile flags: /Odt
;	COMDAT __JustMyCode_Default
_TEXT	SEGMENT
__JustMyCode_Default PROC				; COMDAT
	push	ebp
	mov	ebp, esp
	pop	ebp
	ret	0
__JustMyCode_Default ENDP
_TEXT	ENDS
; Function compile flags: /Odtp /RTCsu /ZI
;	COMDAT ?getInstanceSize@BitmapDatabase@@YAGXZ
_TEXT	SEGMENT
?getInstanceSize@BitmapDatabase@@YAGXZ PROC		; BitmapDatabase::getInstanceSize, COMDAT
; File C:\TouchGFXProjects\MyApplication_13\TouchGFX\generated\images\src\BitmapDatabase.cpp
; Line 45
	push	ebp
	mov	ebp, esp
	sub	esp, 192				; 000000c0H
	push	ebx
	push	esi
	push	edi
	mov	edi, ebp
	xor	ecx, ecx
	mov	eax, -858993460				; ccccccccH
	rep stosd
	mov	ecx, OFFSET __E7D60DDA_BitmapDatabase@cpp
	call	@__CheckForDebuggerJustMyCode@4
; Line 46
	mov	eax, 13					; 0000000dH
; Line 47
	pop	edi
	pop	esi
	pop	ebx
	add	esp, 192				; 000000c0H
	cmp	ebp, esp
	call	__RTC_CheckEsp
	mov	esp, ebp
	pop	ebp
	ret	0
?getInstanceSize@BitmapDatabase@@YAGXZ ENDP		; BitmapDatabase::getInstanceSize
_TEXT	ENDS
; Function compile flags: /Odtp /RTCsu /ZI
;	COMDAT ?getInstance@BitmapDatabase@@YAPBUBitmapData@Bitmap@touchgfx@@XZ
_TEXT	SEGMENT
?getInstance@BitmapDatabase@@YAPBUBitmapData@Bitmap@touchgfx@@XZ PROC ; BitmapDatabase::getInstance, COMDAT
; File C:\TouchGFXProjects\MyApplication_13\TouchGFX\generated\images\src\BitmapDatabase.cpp
; Line 40
	push	ebp
	mov	ebp, esp
	sub	esp, 192				; 000000c0H
	push	ebx
	push	esi
	push	edi
	mov	edi, ebp
	xor	ecx, ecx
	mov	eax, -858993460				; ccccccccH
	rep stosd
	mov	ecx, OFFSET __E7D60DDA_BitmapDatabase@cpp
	call	@__CheckForDebuggerJustMyCode@4
; Line 41
	mov	eax, OFFSET ?bitmap_database@@3QBUBitmapData@Bitmap@touchgfx@@B
; Line 42
	pop	edi
	pop	esi
	pop	ebx
	add	esp, 192				; 000000c0H
	cmp	ebp, esp
	call	__RTC_CheckEsp
	mov	esp, ebp
	pop	ebp
	ret	0
?getInstance@BitmapDatabase@@YAPBUBitmapData@Bitmap@touchgfx@@XZ ENDP ; BitmapDatabase::getInstance
_TEXT	ENDS
END
