; Listing generated by Microsoft (R) Optimizing Compiler Version 19.29.30038.1 

	TITLE	C:\TouchGFXProjects\MyApplication_13\TouchGFX\build\Debug\obj\image_weather_background_2.obj
	.686P
	.XMM
	include listing.inc
	.model	flat

INCLUDELIB MSVCRTD
INCLUDELIB OLDNAMES

PUBLIC	?image_weather_background_2@@3QBEB		; image_weather_background_2
CONST	SEGMENT
?image_weather_background_2@@3QBEB DB 076H		; image_weather_background_2
	DB	054H
	DB	076H
	DB	054H
	DB	076H
	DB	054H
	DB	076H
	DB	054H
	DB	056H
	DB	054H
	DB	056H
	DB	054H
	DB	056H
	DB	054H
	DB	056H
	DB	054H
	DB	056H
	DB	054H
	DB	056H
	DB	054H
	DB	056H
	DB	054H
	DB	056H
	DB	04cH
	DB	056H
	DB	054H
	DB	056H
	DB	054H
	DB	056H
	DB	04cH
	DB	056H
	DB	04cH
	DB	056H
	DB	054H
	DB	056H
	DB	054H
	DB	056H
	DB	054H
	DB	056H
	DB	04cH
	DB	056H
	DB	054H
	DB	056H
	DB	054H
	DB	056H
	DB	054H
	DB	056H
	DB	054H
	DB	056H
	DB	054H
	DB	056H
	DB	054H
	DB	056H
	DB	054H
	DB	056H
	DB	054H
	DB	056H
	DB	054H
	DB	056H
	DB	054H
	DB	076H
	DB	054H
	DB	076H
	DB	054H
	DB	076H
	DB	054H
	DB	076H
	DB	05cH
	DB	076H
	DB	054H
	DB	076H
	DB	054H
	DB	076H
	DB	05cH
	DB	076H
	DB	05cH
	DB	076H
	DB	05cH
	DB	076H
	DB	05cH
	DB	076H
	DB	05cH
	DB	077H
	DB	05cH
	DB	077H
	DB	05cH
	DB	097H
	DB	05cH
	DB	097H
	DB	05cH
	DB	097H
	DB	05cH
	DB	097H
	DB	064H
	DB	097H
	DB	064H
	DB	0b7H
	DB	064H
	DB	0b7H
	DB	064H
	DB	0b7H
	DB	064H
	DB	0b7H
	DB	064H
	DB	0d7H
	DB	06cH
	DB	0d7H
	DB	06cH
	DB	0f8H
	DB	074H
	DB	018H
	DB	075H
	DB	038H
	DB	07dH
	DB	058H
	DB	07dH
	DB	059H
	DB	085H
	DB	099H
	DB	08dH
	DB	099H
	DB	08dH
	DB	099H
	DB	08dH
	DB	0b9H
	DB	08dH
	DB	0b9H
	DB	095H
	DB	0b9H
	DB	095H
	DB	099H
	DB	08dH
	DB	099H
	DB	08dH
	DB	099H
	DB	08dH
	DB	099H
	DB	08dH
	DB	0f8H
	DB	074H
	DB	097H
	DB	064H
	DB	0b7H
	DB	064H
	DB	097H
	DB	064H
	DB	097H
	DB	05cH
	DB	0b7H
	DB	064H
	DB	097H
	DB	064H
	DB	0b7H
	DB	064H
	DB	0b7H
	DB	064H
	DB	0b8H
	DB	064H
	DB	0b7H
	DB	064H
	DB	0b7H
	DB	06cH
	DB	0d8H
	DB	06cH
	DB	0b7H
	DB	06cH
	DB	0b7H
	DB	06cH
	DB	0d7H
	DB	064H
	DB	0d7H
	DB	06cH
	DB	0d8H
	DB	06cH
	DB	0d8H
	DB	06cH
	DB	0d7H
	DB	06cH
	DB	0d7H
	DB	06cH
	DB	0d8H
	DB	074H
	DB	0f8H
	DB	074H
	DB	0d7H
	DB	06cH
	DB	0d7H
	DB	06cH
	DB	0f8H
	DB	074H
	DB	0f8H
	DB	074H
	DB	0f8H
	DB	074H
	DB	0f8H
	DB	074H
	DB	0f8H
	DB	074H
	DB	018H
	DB	07dH
	DB	018H
	DB	07dH
	DB	018H
	DB	07dH
	DB	018H
	DB	07dH
	DB	018H
	DB	07dH
	DB	018H
	DB	07dH
	DB	018H
	DB	075H
	DB	018H
	DB	07dH
	DB	018H
	DB	07dH
	DB	018H
	DB	07dH
	DB	038H
	DB	07dH
	DB	038H
	DB	07dH
	DB	018H
	DB	07dH
	DB	018H
	DB	07dH
	DB	018H
	DB	07dH
	DB	018H
	DB	07dH
	DB	038H
	DB	07dH
	DB	038H
	DB	085H
	DB	038H
	DB	085H
	DB	038H
	DB	085H
	DB	038H
	DB	085H
	DB	038H
	DB	085H
	DB	059H
	DB	085H
	DB	038H
	DB	085H
	DB	058H
	DB	085H
	DB	059H
	DB	08dH
	DB	038H
	DB	085H
	DB	058H
	DB	085H
	DB	059H
	DB	08dH
	DB	059H
	DB	08dH
	DB	059H
	DB	08dH
	DB	059H
	DB	08dH
	DB	079H
	DB	095H
	DB	059H
	DB	08dH
	DB	079H
	DB	095H
	DB	079H
	DB	095H
	DB	079H
	DB	095H
	DB	099H
	DB	095H
	DB	099H
	DB	095H
	DB	099H
	DB	095H
	DB	099H
	DB	09dH
	DB	0b9H
	DB	09dH
	DB	099H
	DB	09dH
	DB	0b9H
	DB	09dH
	DB	0baH
	DB	09dH
	DB	0b9H
	DB	09dH
	DB	0b9H
	DB	0a5H
	DB	0daH
	DB	0a5H
	DB	0baH
	DB	0a5H
	DB	0d9H
	DB	0a5H
	DB	0daH
	DB	0a5H
	DB	0faH
	DB	0a5H
	DB	0faH
	DB	0adH
	DB	0faH
	DB	0adH
	DB	0faH
	DB	0adH
	DB	0faH
	DB	0adH
	DB	0faH
	DB	0adH
	DB	0faH
	DB	0adH
	DB	0faH
	DB	0adH
	DB	01aH
	DB	0aeH
	DB	01aH
	DB	0aeH
	DB	01aH
	DB	0b6H
	DB	01aH
	DB	0aeH
	DB	01aH
	DB	0aeH
	DB	01aH
	DB	0b6H
	DB	01aH
	DB	0b6H
	DB	01aH
	DB	0b6H
	DB	03bH
	DB	0b6H
	DB	01aH
	DB	0b6H
	DB	03aH
	DB	0b6H
	DB	03bH
	DB	0b6H
	DB	03bH
	DB	0beH
	DB	03bH
	DB	0b6H
	DB	05bH
	DB	0beH
	DB	03bH
	DB	0b6H
	DB	05bH
	DB	0b6H
	DB	03bH
	DB	0beH
	DB	05bH
	DB	0beH
	DB	07bH
	DB	0beH
	DB	07bH
	DB	0beH
	DB	07bH
	DB	0c6H
	DB	07cH
	DB	0beH
	DB	07bH
	DB	0beH
	DB	09cH
	DB	0c6H
	DB	09cH
	DB	0c6H
	DB	09cH
	DB	0c6H
	DB	0bcH
	DB	0ceH
	DB	0bcH
	DB	0ceH
	DB	0dcH
	DB	0ceH
	DB	0bcH
	DB	0ceH
	DB	0ddH
	DB	0ceH
	DB	0ddH
	DB	0ceH
	DB	0fcH
	DB	0d6H
	DB	0fdH
	DB	0d6H
	DB	0fdH
	DB	0d6H
	DB	01dH
	DB	0d7H
	DB	01dH
	DB	0d7H
	DB	01dH
	DB	0dfH
	DB	03eH
	DB	0dfH
	DB	03eH
	DB	0dfH
	DB	03dH
	DB	0dfH
	DB	03eH
	DB	0dfH
	DB	05eH
	DB	0e7H
	DB	05eH
	DB	0e7H
	DB	05eH
	DB	0e7H
	DB	07eH
	DB	0e7H
	DB	07eH
	DB	0efH
	DB	07fH
	DB	0efH
	DB	09eH
	DB	0efH
	DB	09fH
	DB	0efH
	DB	09fH
	DB	0efH
	DB	09eH
	DB	0efH
	DB	09fH
	DB	0efH
	DB	09fH
	DB	0efH
	DB	0bfH
	DB	0f7H
	DB	0bfH
	DB	0f7H
	DB	0dfH
	DB	0f7H
	DB	0dfH
	DB	0f7H
	DB	0dfH
	DB	0ffH
	DB	0dfH
	DB	0ffH
	DB	0ffH
	DB	0ffH
	DB	0dfH
	DB	0ffH
	DB	0ffH
	DB	0ffH
	DB	0ffH
	DB	0ffH
	DB	0ffH
	DB	0ffH
	DB	0dfH
	DB	0ffH
	DB	0ffH
	DB	0ffH
	DB	0ffH
	DB	0ffH
	DB	0ffH
	DB	0ffH
	DB	0ffH
	DB	0ffH
	DB	0ffH
	DB	0ffH
	DB	0ffH
	DB	0ffH
	DB	0ffH
	DB	0ffH
	DB	0ffH
	DB	0ffH
	DB	0ffH
	DB	0ffH
	DB	0ffH
	DB	0ffH
	DB	0ffH
	DB	0ffH
	DB	0ffH
	DB	0ffH
	DB	0ffH
	DB	0ffH
	DB	0ffH
	DB	0ffH
	DB	0ffH
	DB	0ffH
	DB	097H
	DB	05cH
	DB	076H
	DB	05cH
	DB	077H
	DB	054H
	DB	076H
	DB	054H
	DB	056H
	DB	054H
	DB	056H
	DB	054H
	DB	056H
	DB	04cH
	DB	056H
	DB	054H
	DB	056H
	DB	04cH
	DB	036H
	DB	054H
	DB	056H
	DB	04cH
	DB	056H
	DB	054H
	DB	056H
	DB	04cH
	DB	056H
	DB	054H
	DB	056H
	DB	04cH
	DB	056H
	DB	054H
	DB	036H
	DB	04cH
	DB	056H
	DB	04cH
	DB	056H
	DB	04cH
	DB	056H
	DB	054H
	DB	056H
	DB	054H
	DB	056H
	DB	054H
	DB	056H
	DB	054H
	DB	076H
	DB	054H
	DB	056H
	DB	054H
	DB	056H
	DB	054H
	DB	056H
	DB	054H
	DB	076H
	DB	054H
	DB	056H
	DB	054H
	DB	056H
	DB	054H
	DB	056H
	DB	054H
	DB	056H
	DB	054H
	DB	076H
	DB	05cH
	DB	056H
	DB	054H
	DB	056H
	DB	054H
	DB	076H
	DB	054H
	DB	076H
	DB	054H
	DB	057H
	DB	054H
	DB	056H
	DB	054H
	DB	076H
	DB	054H
	DB	077H
	DB	05cH
	DB	076H
	DB	05cH
	DB	096H
	DB	05cH
	DB	097H
	DB	05cH
	DB	096H
	DB	05cH
	DB	097H
	DB	05cH
	DB	097H
	DB	05cH
	DB	097H
	DB	064H
	DB	0b7H
	DB	064H
	DB	0b7H
	DB	064H
	DB	0b7H
	DB	064H
	DB	0d7H
	DB	064H
	DB	0d8H
	DB	06cH
	DB	0f8H
	DB	06cH
	DB	018H
	DB	075H
	DB	018H
	DB	075H
	DB	038H
	DB	07dH
	DB	058H
	DB	085H
	DB	058H
	DB	085H
	DB	079H
	DB	08dH
	DB	099H
	DB	08dH
	DB	099H
	DB	08dH
	DB	099H
	DB	08dH
	DB	0b9H
	DB	08dH
	DB	099H
	DB	08dH
	DB	0b9H
	DB	08dH
	DB	099H
	DB	08dH
	DB	099H
	DB	08dH
	DB	0b9H
	DB	08dH
	DB	0b9H
	DB	095H
	DB	018H
	DB	075H
	DB	0b7H
	DB	064H
	DB	097H
	DB	05cH
	DB	097H
	DB	05cH
	DB	097H
	DB	05cH
	DB	0b7H
	DB	064H
	DB	097H
	DB	05cH
	DB	0b7H
	DB	064H
	DB	097H
	DB	064H
	DB	0b7H
	DB	064H
	DB	097H
	DB	05cH
	DB	0b7H
	DB	064H
	DB	0b7H
	DB	064H
	DB	097H
	DB	064H
	DB	0b7H
	DB	064H
	DB	0b7H
	DB	064H
	DB	0b7H
	DB	064H
	DB	0b7H
	DB	064H
	DB	0d7H
	DB	06cH
	DB	0d8H
	DB	06cH
	DB	0d7H
	DB	06cH
	DB	0d7H
	DB	06cH
	DB	0d7H
	DB	06cH
	DB	0d8H
	DB	06cH
	DB	0d7H
	DB	06cH
	DB	0d7H
	DB	06cH
	DB	0d8H
	DB	06cH
	DB	0d8H
	DB	06cH
	DB	0f7H
	DB	06cH
	DB	0d7H
	DB	074H
	DB	0f8H
	DB	074H
	DB	0f8H
	DB	074H
	DB	0f8H
	DB	074H
	DB	0f8H
	DB	074H
	DB	0f8H
	DB	074H
	DB	0d7H
	DB	074H
	DB	0f8H
	DB	074H
	DB	0f8H
	DB	074H
	DB	0f8H
	DB	074H
	DB	0f8H
	DB	074H
	DB	0f8H
	DB	07cH
	DB	0f8H
	DB	074H
	DB	0f8H
	DB	074H
	DB	0f8H
	DB	074H
	DB	0f8H
	DB	07cH
	DB	018H
	DB	07dH
	DB	0f8H
	DB	074H
	DB	018H
	DB	07dH
	DB	018H
	DB	07dH
	DB	018H
	DB	07dH
	DB	018H
	DB	07dH
	DB	018H
	DB	07dH
	DB	038H
	DB	085H
	DB	038H
	DB	085H
	DB	038H
	DB	085H
	DB	038H
	DB	085H
	DB	058H
	DB	085H
	DB	039H
	DB	08dH
	DB	059H
	DB	08dH
	DB	078H
	DB	08dH
	DB	079H
	DB	08dH
	DB	079H
	DB	08dH
	DB	059H
	DB	08dH
	DB	059H
	DB	08dH
	DB	079H
	DB	08dH
	DB	078H
	DB	08dH
	DB	079H
	DB	095H
	DB	079H
	DB	095H
	DB	099H
	DB	095H
	DB	099H
	DB	095H
	DB	09aH
	DB	09dH
	DB	099H
	DB	09dH
	DB	0baH
	DB	09dH
	DB	0b9H
	DB	09dH
	DB	0b9H
	DB	09dH
	DB	0baH
	DB	09dH
	DB	0daH
	DB	0a5H
	DB	0d9H
	DB	0a5H
	DB	0daH
	DB	0a5H
	DB	0daH
	DB	0a5H
	DB	0daH
	DB	0a5H
	DB	0faH
	DB	0adH
	DB	0faH
	DB	0adH
	DB	0faH
	DB	0adH
	DB	0faH
	DB	0adH
	DB	01aH
	DB	0aeH
	DB	01aH
	DB	0aeH
	DB	01aH
	DB	0b6H
	DB	0faH
	DB	0b5H
	DB	01aH
	DB	0b6H
	DB	01aH
	DB	0b6H
	DB	01aH
	DB	0b6H
	DB	01bH
	DB	0aeH
	DB	01bH
	DB	0b6H
	DB	01aH
	DB	0b6H
	DB	01bH
	DB	0b6H
	DB	03bH
	DB	0b6H
	DB	03aH
	DB	0b6H
	DB	03bH
	DB	0b6H
	DB	05bH
	DB	0b6H
	DB	03bH
	DB	0b6H
	DB	05aH
	DB	0b6H
	DB	05bH
	DB	0beH
	DB	05bH
	DB	0beH
	DB	05bH
	DB	0beH
	DB	07bH
	DB	0beH
	DB	07bH
	DB	0beH
	DB	07bH
	DB	0beH
	DB	07bH
	DB	0beH
	DB	07bH
	DB	0c6H
	DB	07bH
	DB	0c6H
	DB	07bH
	DB	0beH
	DB	09cH
	DB	0c6H
	DB	09bH
	DB	0beH
	DB	09cH
	DB	0c6H
	DB	09cH
	DB	0c6H
	DB	09cH
	DB	0c6H
	DB	0bcH
	DB	0c6H
	DB	0bcH
	DB	0ceH
	DB	0bcH
	DB	0ceH
	DB	0bcH
	DB	0ceH
	DB	0dcH
	DB	0ceH
	DB	0dcH
	DB	0ceH
	DB	0ddH
	DB	0ceH
	DB	0fdH
	DB	0d6H
	DB	0fdH
	DB	0d6H
	DB	01dH
	DB	0d7H
	DB	01dH
	DB	0d7H
	DB	03dH
	DB	0dfH
	DB	03dH
	DB	0dfH
	DB	05eH
	DB	0dfH
	DB	05eH
	DB	0dfH
	DB	05eH
	DB	0e7H
	DB	05eH
	DB	0e7H
	DB	07eH
	DB	0e7H
	DB	09fH
	DB	0efH
	DB	09fH
	DB	0efH
	DB	0bfH
	DB	0f7H
	DB	0bfH
	DB	0f7H
	DB	0dfH
	DB	0ffH
	DB	0dfH
	DB	0ffH
	DB	0ffH
	DB	0ffH
	DB	0ffH
	DB	0ffH
	DB	0ffH
	DB	0ffH
	DB	0ffH
	DB	0ffH
	DB	0ffH
	DB	0ffH
	DB	0ffH
	DB	0ffH
	DB	0ffH
	DB	0ffH
	DB	0ffH
	DB	0ffH
	DB	0dfH
	DB	0ffH
	DB	0ffH
	DB	0ffH
	DB	0ffH
	DB	0ffH
	DB	0ffH
	DB	0ffH
	DB	0ffH
	DB	0ffH
	DB	0ffH
	DB	0ffH
	DB	0ffH
	DB	0ffH
	DB	0ffH
	DB	0ffH
	DB	0ffH
	DB	0ffH
	DB	0ffH
	DB	0ffH
	DB	0ffH
	DB	0ffH
	DB	0ffH
	DB	0ffH
	DB	0ffH
	DB	0ffH
	DB	0ffH
	DB	0ffH
	DB	0ffH
	DB	0ffH
	DB	0ffH
	DB	0ffH
	DB	0ffH
	DB	0ffH
	DB	0ffH
	DB	0ffH
	DB	0ffH
	DB	0ffH
	DB	0ffH
	DB	0ffH
	DB	0ffH
	DB	0ffH
	DB	076H
	DB	054H
	DB	077H
	DB	054H
	DB	077H
	DB	054H
	DB	076H
	DB	054H
	DB	056H
	DB	054H
	DB	076H
	DB	054H
	DB	056H
	DB	054H
	DB	056H
	DB	054H
	DB	056H
	DB	04cH
	DB	056H
	DB	04cH
	DB	036H
	DB	04cH
	DB	056H
	DB	04cH
	DB	056H
	DB	04cH
	DB	036H
	DB	054H
	DB	056H
	DB	054H
	DB	036H
	DB	04cH
	DB	036H
	DB	04cH
	DB	056H
	DB	04cH
	DB	056H
	DB	04cH
	DB	056H
	DB	04cH
	DB	056H
	DB	04cH
	DB	056H
	DB	04cH
	DB	056H
	DB	04cH
	DB	056H
	DB	04cH
	DB	056H
	DB	054H
	DB	056H
	DB	054H
	DB	056H
	DB	054H
	DB	056H
	DB	054H
	DB	056H
	DB	054H
	DB	056H
	DB	054H
	DB	056H
	DB	054H
	DB	056H
	DB	054H
	DB	056H
	DB	054H
	DB	056H
	DB	054H
	DB	057H
	DB	054H
	DB	056H
	DB	054H
	DB	076H
	DB	05cH
	DB	077H
	DB	054H
	DB	077H
	DB	05cH
	DB	076H
	DB	05cH
	DB	077H
	DB	054H
	DB	077H
	DB	05cH
	DB	097H
	DB	05cH
	DB	096H
	DB	05cH
	DB	097H
	DB	05cH
	DB	097H
	DB	064H
	DB	097H
	DB	064H
	DB	0b7H
	DB	064H
	DB	0b7H
	DB	064H
	DB	0b7H
	DB	064H
	DB	0d7H
	DB	064H
	DB	0d7H
	DB	06cH
	DB	0d7H
	DB	06cH
	DB	0f8H
	DB	06cH
	DB	0f7H
	DB	06cH
	DB	018H
	DB	075H
	DB	038H
	DB	07dH
	DB	059H
	DB	085H
	DB	079H
	DB	085H
	DB	078H
	DB	085H
	DB	099H
	DB	08dH
	DB	099H
	DB	08dH
	DB	099H
	DB	08dH
	DB	099H
	DB	08dH
	DB	0b9H
	DB	08dH
	DB	099H
	DB	08dH
	DB	079H
	DB	085H
	DB	099H
	DB	08dH
	DB	099H
	DB	08dH
	DB	0b9H
	DB	08dH
	DB	018H
	DB	075H
	DB	077H
	DB	05cH
	DB	077H
	DB	05cH
	DB	097H
	DB	05cH
	DB	0b7H
	DB	05cH
	DB	097H
	DB	064H
	DB	097H
	DB	064H
	DB	097H
	DB	05cH
	DB	097H
	DB	064H
	DB	0b7H
	DB	064H
	DB	0b7H
	DB	05cH
	DB	0b7H
	DB	064H
	DB	098H
	DB	064H
	DB	0b8H
	DB	064H
	DB	0b8H
	DB	064H
	DB	0b7H
	DB	064H
	DB	0b8H
	DB	064H
	DB	0b7H
	DB	06cH
	DB	0b8H
	DB	06cH
	DB	0d8H
	DB	06cH
	DB	0d7H
	DB	06cH
	DB	0d8H
	DB	06cH
	DB	0d8H
	DB	06cH
	DB	0d8H
	DB	074H
	DB	0d8H
	DB	06cH
	DB	0d7H
	DB	06cH
	DB	0d7H
	DB	06cH
	DB	0d8H
	DB	06cH
	DB	0d8H
	DB	074H
	DB	0f8H
	DB	06cH
	DB	0d8H
	DB	06cH
	DB	0d8H
	DB	074H
	DB	0d7H
	DB	06cH
	DB	0d7H
	DB	074H
	DB	0f8H
	DB	074H
	DB	0d8H
	DB	074H
	DB	0f8H
	DB	074H
	DB	0f8H
	DB	074H
	DB	0f7H
	DB	074H
	DB	0f8H
	DB	074H
	DB	0f8H
	DB	074H
	DB	0f8H
	DB	074H
	DB	0f8H
	DB	074H
	DB	0d7H
	DB	074H
	DB	0d7H
	DB	074H
	DB	0f8H
	DB	074H
	DB	0f8H
	DB	074H
	DB	0f8H
	DB	074H
	DB	0f8H
	DB	07cH
	DB	018H
	DB	07dH
	DB	0f8H
	DB	07cH
	DB	018H
	DB	07dH
	DB	0f8H
	DB	07cH
	DB	0f8H
	DB	07cH
	DB	018H
	DB	07dH
	DB	018H
	DB	07dH
	DB	018H
	DB	07dH
	DB	018H
	DB	085H
	DB	038H
	DB	085H
	DB	018H
	DB	07dH
	DB	038H
	DB	085H
	DB	018H
	DB	085H
	DB	038H
	DB	085H
	DB	038H
	DB	085H
	DB	058H
	DB	08dH
	DB	058H
	DB	085H
	DB	038H
	DB	08dH
	DB	038H
	DB	08dH
	DB	059H
	DB	08dH
	DB	059H
	DB	08dH
	DB	079H
	DB	08dH
	DB	079H
	DB	095H
	DB	079H
	DB	095H
	DB	079H
	DB	095H
	DB	079H
	DB	095H
	DB	099H
	DB	095H
	DB	079H
	DB	095H
	DB	099H
	DB	095H
	DB	099H
	DB	09dH
	DB	099H
	DB	09dH
	DB	0b9H
	DB	09dH
	DB	0b9H
	DB	09dH
	DB	0b9H
	DB	09dH
	DB	0b9H
	DB	09dH
	DB	0b9H
	DB	0a5H
	DB	0daH
	DB	0a5H
	DB	0d9H
	DB	0a5H
	DB	0daH
	DB	0a5H
	DB	0daH
	DB	0adH
	DB	0faH
	DB	0adH
	DB	0daH
	DB	0a5H
	DB	0daH
	DB	0a5H
	DB	0d9H
	DB	0adH
	DB	0faH
	DB	0adH
	DB	0faH
	DB	0adH
	DB	0faH
	DB	0adH
	DB	01aH
	DB	0aeH
	DB	01aH
	DB	0b6H
	DB	01aH
	DB	0aeH
	DB	0faH
	DB	0adH
	DB	01aH
	DB	0b6H
	DB	01aH
	DB	0b6H
	DB	01aH
	DB	0aeH
	DB	01aH
	DB	0b6H
	DB	03aH
	DB	0b6H
	DB	03bH
	DB	0b6H
	DB	03aH
	DB	0b6H
	DB	03bH
	DB	0b6H
	DB	03bH
	DB	0b6H
	DB	03bH
	DB	0b6H
	DB	03bH
	DB	0b6H
	DB	05bH
	DB	0beH
	DB	05bH
	DB	0b6H
	DB	05bH
	DB	0beH
	DB	05bH
	DB	0beH
	DB	05bH
	DB	0beH
	DB	07bH
	DB	0beH
	DB	09bH
	DB	0beH
	DB	07bH
	DB	0beH
	DB	09cH
	DB	0beH
	DB	09cH
	DB	0c6H
	DB	09bH
	DB	0c6H
	DB	0bcH
	DB	0c6H
	DB	0bcH
	DB	0c6H
	DB	0bcH
	DB	0c6H
	DB	0bcH
	DB	0ceH
	DB	0dcH
	DB	0ceH
	DB	0dcH
	DB	0ceH
	DB	0dcH
	DB	0ceH
	DB	0fdH
	DB	0d6H
	DB	0fdH
	DB	0d6H
	DB	01dH
	DB	0d7H
	DB	01dH
	DB	0d7H
	DB	01dH
	DB	0d7H
	DB	03dH
	DB	0dfH
	DB	03eH
	DB	0dfH
	DB	03dH
	DB	0dfH
	DB	05eH
	DB	0dfH
	DB	05eH
	DB	0e7H
	DB	07eH
	DB	0e7H
	DB	07eH
	DB	0e7H
	DB	09fH
	DB	0efH
	DB	09fH
	DB	0efH
	DB	0bfH
	DB	0f7H
	DB	0bfH
	DB	0f7H
	DB	0dfH
	DB	0ffH
	DB	0dfH
	DB	0ffH
	DB	0ffH
	DB	0ffH
	DB	0ffH
	DB	0ffH
	DB	0ffH
	DB	0ffH
	DB	0ffH
	DB	0ffH
	DB	0ffH
	DB	0ffH
	DB	0dfH
	DB	0ffH
	DB	0dfH
	DB	0ffH
	DB	0ffH
	DB	0ffH
	DB	0ffH
	DB	0ffH
	DB	0ffH
	DB	0ffH
	DB	0ffH
	DB	0ffH
	DB	0ffH
	DB	0ffH
	DB	0ffH
	DB	0ffH
	DB	0ffH
	DB	0ffH
	DB	0ffH
	DB	0ffH
	DB	0ffH
	DB	0ffH
	DB	0ffH
	DB	0ffH
	DB	0ffH
	DB	0ffH
	DB	0ffH
	DB	0ffH
	DB	0ffH
	DB	0ffH
	DB	0ffH
	DB	0ffH
	DB	0ffH
	DB	0ffH
	DB	0ffH
	DB	0ffH
	DB	076H
	DB	054H
	DB	076H
	DB	054H
	DB	077H
	DB	054H
	DB	077H
	DB	054H
	DB	076H
	DB	054H
	DB	057H
	DB	054H
	DB	077H
	DB	054H
	DB	056H
	DB	054H
	DB	056H
	DB	04cH
	DB	056H
	DB	054H
	DB	056H
	DB	054H
	DB	036H
	DB	054H
	DB	036H
	DB	04cH
	DB	036H
	DB	04cH
	DB	036H
	DB	04cH
	DB	056H
	DB	04cH
	DB	036H
	DB	054H
	DB	055H
	DB	04cH
	DB	056H
	DB	04cH
	DB	036H
	DB	054H
	DB	035H
	DB	04cH
	DB	056H
	DB	054H
	DB	036H
	DB	04cH
	DB	036H
	DB	04cH
	DB	036H
	DB	04cH
	DB	056H
	DB	04cH
	DB	056H
	DB	054H
	DB	056H
	DB	04cH
	DB	056H
	DB	054H
	DB	056H
	DB	04cH
	DB	056H
	DB	054H
	DB	056H
	DB	054H
	DB	056H
	DB	054H
	DB	056H
	DB	054H
	DB	056H
	DB	054H
	DB	076H
	DB	054H
	DB	056H
	DB	054H
	DB	076H
	DB	054H
	DB	076H
	DB	054H
	DB	077H
	DB	054H
	DB	076H
	DB	05cH
	DB	076H
	DB	054H
	DB	076H
	DB	05cH
	DB	077H
	DB	05cH
	DB	097H
	DB	05cH
	DB	097H
	DB	064H
	DB	0b6H
	DB	05cH
	DB	0b7H
	DB	064H
	DB	0b7H
	DB	064H
	DB	0b7H
	DB	064H
	DB	0b7H
	DB	064H
	DB	0b7H
	DB	064H
	DB	0d7H
	DB	06cH
	DB	0d7H
	DB	06cH
	DB	0d7H
	DB	06cH
	DB	0f8H
	DB	06cH
	DB	018H
	DB	075H
	DB	038H
	DB	07dH
	DB	059H
	DB	07dH
	DB	058H
	DB	085H
	DB	078H
	DB	085H
	DB	079H
	DB	085H
	DB	079H
	DB	08dH
	DB	099H
	DB	08dH
	DB	079H
	DB	08dH
	DB	099H
	DB	08dH
	DB	079H
	DB	08dH
	DB	079H
	DB	085H
	DB	079H
	DB	085H
	DB	058H
	DB	085H
	DB	038H
	DB	07dH
	DB	018H
	DB	075H
	DB	0d8H
	DB	06cH
	DB	097H
	DB	064H
	DB	077H
	DB	05cH
	DB	097H
	DB	05cH
	DB	097H
	DB	064H
	DB	097H
	DB	05cH
	DB	097H
	DB	05cH
	DB	097H
	DB	05cH
	DB	097H
	DB	064H
	DB	097H
	DB	064H
	DB	0b7H
	DB	064H
	DB	097H
	DB	05cH
	DB	097H
	DB	064H
	DB	097H
	DB	064H
	DB	097H
	DB	064H
	DB	0b7H
	DB	064H
	DB	0b7H
	DB	064H
	DB	0b7H
	DB	064H
	DB	0b7H
	DB	064H
	DB	0b7H
	DB	06cH
	DB	0d7H
	DB	06cH
	DB	0b7H
	DB	06cH
	DB	0d8H
	DB	06cH
	DB	0d7H
	DB	06cH
	DB	0b7H
	DB	06cH
	DB	0d7H
	DB	06cH
	DB	0b7H
	DB	06cH
	DB	0d7H
	DB	06cH
	DB	0d7H
	DB	06cH
	DB	0d7H
	DB	06cH
	DB	0d7H
	DB	06cH
	DB	0d8H
	DB	06cH
	DB	0f7H
	DB	06cH
	DB	0d7H
	DB	074H
	DB	0d7H
	DB	06cH
	DB	0f7H
	DB	06cH
	DB	0d7H
	DB	074H
	DB	0d7H
	DB	074H
	DB	0f7H
	DB	074H
	DB	0f7H
	DB	074H
	DB	0f7H
	DB	074H
	DB	0d7H
	DB	074H
	DB	0d7H
	DB	074H
	DB	0f8H
	DB	074H
	DB	0f8H
	DB	074H
	DB	0f7H
	DB	074H
	DB	0f8H
	DB	074H
	DB	0f8H
	DB	074H
	DB	0f8H
	DB	074H
	DB	0f8H
	DB	074H
	DB	0f8H
	DB	074H
	DB	0f8H
	DB	07cH
	DB	018H
	DB	07dH
	DB	0f8H
	DB	07cH
	DB	018H
	DB	07dH
	DB	018H
	DB	07dH
	DB	018H
	DB	07dH
	DB	018H
	DB	07dH
	DB	018H
	DB	07dH
	DB	038H
	DB	07dH
	DB	038H
	DB	085H
	DB	038H
	DB	085H
	DB	038H
	DB	085H
	DB	039H
	DB	085H
	DB	058H
	DB	085H
	DB	059H
	DB	085H
	DB	038H
	DB	085H
	DB	058H
	DB	08dH
	DB	059H
	DB	08dH
	DB	079H
	DB	08dH
	DB	079H
	DB	08dH
	DB	078H
	DB	095H
	DB	078H
	DB	095H
	DB	079H
	DB	095H
	DB	079H
	DB	095H
	DB	079H
	DB	095H
	DB	079H
	DB	095H
	DB	099H
	DB	09dH
	DB	099H
	DB	095H
	DB	099H
	DB	09dH
	DB	099H
	DB	09dH
	DB	099H
	DB	09dH
	DB	0b9H
	DB	09dH
	DB	099H
	DB	09dH
	DB	0b9H
	DB	09dH
	DB	0b9H
	DB	0a5H
	DB	0b9H
	DB	0a5H
	DB	0daH
	DB	0a5H
	DB	0d9H
	DB	0a5H
	DB	0b9H
	DB	0a5H
	DB	0baH
	DB	0a5H
	DB	0d9H
	DB	0a5H
	DB	0daH
	DB	0adH
	DB	0faH
	DB	0adH
	DB	0faH
	DB	0adH
	DB	0daH
	DB	0adH
	DB	0faH
	DB	0adH
	DB	0faH
	DB	0adH
	DB	0faH
	DB	0adH
	DB	01aH
	DB	0b6H
	DB	0faH
	DB	0adH
	DB	01aH
	DB	0aeH
	DB	01aH
	DB	0b6H
	DB	01aH
	DB	0b6H
	DB	01aH
	DB	0aeH
	DB	01aH
	DB	0b6H
	DB	01aH
	DB	0b6H
	DB	01aH
	DB	0aeH
	DB	03aH
	DB	0b6H
	DB	01aH
	DB	0aeH
	DB	01aH
	DB	0b6H
	DB	03bH
	DB	0b6H
	DB	03aH
	DB	0b6H
	DB	03aH
	DB	0b6H
	DB	03bH
	DB	0b6H
	DB	05bH
	DB	0b6H
	DB	05bH
	DB	0beH
	DB	05bH
	DB	0b6H
	DB	05bH
	DB	0b6H
	DB	07bH
	DB	0beH
	DB	07bH
	DB	0beH
	DB	07bH
	DB	0beH
	DB	07bH
	DB	0beH
	DB	07cH
	DB	0beH
	DB	09cH
	DB	0c6H
	DB	09cH
	DB	0c6H
	DB	09cH
	DB	0c6H
	DB	0bcH
	DB	0c6H
	DB	0bcH
	DB	0c6H
	DB	0bcH
	DB	0ceH
	DB	0dcH
	DB	0ceH
	DB	0ddH
	DB	0ceH
	DB	0fdH
	DB	0ceH
	DB	0fdH
	DB	0ceH
	DB	0fdH
	DB	0d6H
	DB	01dH
	DB	0d7H
	DB	01dH
	DB	0d7H
	DB	01eH
	DB	0d7H
	DB	03eH
	DB	0dfH
	DB	05eH
	DB	0e7H
	DB	05eH
	DB	0e7H
	DB	07eH
	DB	0e7H
	DB	07eH
	DB	0efH
	DB	09fH
	DB	0efH
	DB	0bfH
	DB	0f7H
	DB	0bfH
	DB	0f7H
	DB	0dfH
	DB	0ffH
	DB	0dfH
	DB	0ffH
	DB	0dfH
	DB	0ffH
	DB	0ffH
	DB	0ffH
	DB	0ffH
	DB	0ffH
	DB	0ffH
	DB	0ffH
	DB	0ffH
	DB	0ffH
	DB	0dfH
	DB	0ffH
	DB	0ffH
	DB	0ffH
	DB	0ffH
	DB	0ffH
	DB	0ffH
	DB	0ffH
	DB	0ffH
	DB	0ffH
	DB	0ffH
	DB	0ffH
	DB	0ffH
	DB	0ffH
	DB	0ffH
	DB	0ffH
	DB	0ffH
	DB	0ffH
	DB	0ffH
	DB	0ffH
	DB	0ffH
	DB	0ffH
	DB	0ffH
	DB	0ffH
	DB	0ffH
	DB	0ffH
	DB	0ffH
	DB	0ffH
	DB	0ffH
	DB	0ffH
	DB	077H
	DB	05cH
	DB	076H
	DB	054H
	DB	056H
	DB	054H
	DB	077H
	DB	054H
	DB	077H
	DB	054H
	DB	056H
	DB	054H
	DB	056H
	DB	04cH
	DB	056H
	DB	054H
	DB	056H
	DB	054H
	DB	056H
	DB	04cH
	DB	056H
	DB	054H
	DB	056H
	DB	054H
	DB	056H
	DB	04cH
	DB	036H
	DB	04cH
	DB	036H
	DB	04cH
	DB	036H
	DB	04cH
	DB	056H
	DB	04cH
	DB	036H
	DB	04cH
	DB	036H
	DB	04cH
	DB	036H
	DB	04cH
	DB	036H
	DB	04cH
	DB	036H
	DB	04cH
	DB	036H
	DB	04cH
	DB	036H
	DB	04cH
	DB	036H
	DB	04cH
	DB	056H
	DB	04cH
	DB	036H
	DB	04cH
	DB	036H
	DB	04cH
	DB	056H
	DB	04cH
	DB	056H
	DB	054H
	DB	056H
	DB	04cH
	DB	056H
	DB	054H
	DB	056H
	DB	054H
	DB	056H
	DB	04cH
	DB	056H
	DB	054H
	DB	056H
	DB	054H
	DB	056H
	DB	054H
	DB	056H
	DB	054H
	DB	076H
	DB	054H
	DB	076H
	DB	054H
	DB	057H
	DB	054H
	DB	076H
	DB	054H
	DB	076H
	DB	05cH
	DB	097H
	DB	05cH
	DB	097H
	DB	05cH
	DB	097H
	DB	05cH
	DB	097H
	DB	05cH
	DB	097H
	DB	05cH
	DB	0b7H
	DB	064H
	DB	0b7H
	DB	064H
	DB	0b7H
	DB	064H
	DB	0b7H
	DB	064H
	DB	0d7H
	DB	064H
	DB	0d7H
	DB	06cH
	DB	0d7H
	DB	06cH
	DB	0f8H
	DB	06cH
	DB	0f8H
	DB	06cH
	DB	018H
	DB	075H
	DB	018H
	DB	075H
	DB	038H
	DB	07dH
	DB	079H
	DB	085H
	DB	079H
	DB	085H
	DB	078H
	DB	085H
	DB	099H
	DB	08dH
	DB	099H
	DB	08dH
	DB	099H
	DB	08dH
	DB	099H
	DB	08dH
	DB	098H
	DB	08dH
	DB	079H
	DB	085H
	DB	079H
	DB	085H
	DB	079H
	DB	085H
	DB	058H
	DB	07dH
	DB	038H
	DB	07dH
	DB	0b7H
	DB	064H
	DB	097H
	DB	05cH
	DB	077H
	DB	05cH
	DB	097H
	DB	05cH
	DB	097H
	DB	05cH
	DB	097H
	DB	05cH
	DB	097H
	DB	05cH
	DB	097H
	DB	064H
	DB	0b7H
	DB	05cH
	DB	0b7H
	DB	064H
	DB	097H
	DB	064H
	DB	097H
	DB	05cH
	DB	0b7H
	DB	064H
	DB	097H
	DB	064H
	DB	0b7H
	DB	064H
	DB	0b7H
	DB	064H
	DB	0b7H
	DB	064H
	DB	0b8H
	DB	064H
	DB	0b8H
	DB	064H
	DB	0d7H
	DB	06cH
	DB	0d7H
	DB	06cH
	DB	0d7H
	DB	064H
	DB	0d8H
	DB	06cH
	DB	0b7H
	DB	06cH
	DB	0b7H
	DB	06cH
	DB	0b8H
	DB	064H
	DB	0b7H
	DB	06cH
	DB	0d7H
	DB	06cH
	DB	0d8H
	DB	06cH
	DB	0d8H
	DB	074H
	DB	0f7H
	DB	074H
	DB	0d7H
	DB	06cH
	DB	0f8H
	DB	06cH
	DB	0d7H
	DB	06cH
	DB	0b8H
	DB	06cH
	DB	0d8H
	DB	074H
	DB	0d7H
	DB	074H
	DB	0d8H
	DB	06cH
	DB	0d8H
	DB	074H
	DB	0d7H
	DB	06cH
	DB	0d8H
	DB	074H
	DB	0d7H
	DB	06cH
	DB	0d8H
	DB	074H
	DB	0d7H
	DB	074H
	DB	0f7H
	DB	074H
	DB	0f7H
	DB	074H
	DB	0f7H
	DB	074H
	DB	0f8H
	DB	074H
	DB	0f8H
	DB	074H
	DB	0f7H
	DB	074H
	DB	0f8H
	DB	074H
	DB	0f8H
	DB	07cH
	DB	0f8H
	DB	07cH
	DB	018H
	DB	07dH
	DB	018H
	DB	07dH
	DB	018H
	DB	07dH
	DB	018H
	DB	07dH
	DB	018H
	DB	07dH
	DB	038H
	DB	085H
	DB	018H
	DB	085H
	DB	038H
	DB	085H
	DB	039H
	DB	085H
	DB	058H
	DB	085H
	DB	059H
	DB	085H
	DB	038H
	DB	085H
	DB	038H
	DB	08dH
	DB	059H
	DB	08dH
	DB	058H
	DB	08dH
	DB	059H
	DB	08dH
	DB	058H
	DB	08dH
	DB	058H
	DB	08dH
	DB	079H
	DB	08dH
	DB	059H
	DB	08dH
	DB	079H
	DB	095H
	DB	078H
	DB	095H
	DB	079H
	DB	095H
	DB	079H
	DB	095H
	DB	079H
	DB	095H
	DB	079H
	DB	095H
	DB	079H
	DB	095H
	DB	099H
	DB	09dH
	DB	099H
	DB	09dH
	DB	099H
	DB	09dH
	DB	0b9H
	DB	09dH
	DB	0b9H
	DB	09dH
	DB	099H
	DB	09dH
	DB	099H
	DB	09dH
	DB	0b9H
	DB	09dH
	DB	0b9H
	DB	0a5H
	DB	0b9H
	DB	0a5H
	DB	0d9H
	DB	0a5H
	DB	0daH
	DB	0a5H
	DB	0daH
	DB	0adH
	DB	0d9H
	DB	0a5H
	DB	0daH
	DB	0a5H
	DB	0daH
	DB	0adH
	DB	0d9H
	DB	0adH
	DB	0d9H
	DB	0a5H
	DB	0daH
	DB	0adH
	DB	0faH
	DB	0adH
	DB	0faH
	DB	0adH
	DB	0faH
	DB	0adH
	DB	0faH
	DB	0adH
	DB	0faH
	DB	0adH
	DB	0faH
	DB	0adH
	DB	0faH
	DB	0adH
	DB	0faH
	DB	0adH
	DB	01aH
	DB	0aeH
	DB	01bH
	DB	0b6H
	DB	01aH
	DB	0aeH
	DB	01bH
	DB	0b6H
	DB	03bH
	DB	0b6H
	DB	03aH
	DB	0b6H
	DB	03bH
	DB	0b6H
	DB	03bH
	DB	0b6H
	DB	05bH
	DB	0b6H
	DB	05bH
	DB	0beH
	DB	05bH
	DB	0beH
	DB	07bH
	DB	0beH
	DB	07cH
	DB	0beH
	DB	07cH
	DB	0c6H
	DB	09cH
	DB	0c6H
	DB	09cH
	DB	0c6H
	DB	09cH
	DB	0c6H
	DB	0bcH
	DB	0c6H
	DB	0bcH
	DB	0ceH
	DB	0dcH
	DB	0ceH
	DB	0dcH
	DB	0ceH
	DB	0fdH
	DB	0ceH
	DB	0fcH
	DB	0ceH
	DB	0fdH
	DB	0ceH
	DB	01dH
	DB	0d7H
	DB	01dH
	DB	0d7H
	DB	01dH
	DB	0d7H
	DB	03eH
	DB	0d7H
	DB	03eH
	DB	0dfH
	DB	03eH
	DB	0dfH
	DB	03eH
	DB	0dfH
	DB	05eH
	DB	0dfH
	DB	03eH
	DB	0dfH
	DB	05eH
	DB	0e7H
	DB	07eH
	DB	0e7H
	DB	07eH
	DB	0e7H
	DB	07eH
	DB	0e7H
	DB	07fH
	DB	0efH
	DB	09fH
	DB	0efH
	DB	0bfH
	DB	0f7H
	DB	0dfH
	DB	0f7H
	DB	0dfH
	DB	0ffH
	DB	0ffH
	DB	0ffH
	DB	0ffH
	DB	0ffH
	DB	0ffH
	DB	0ffH
	DB	0ffH
	DB	0ffH
	DB	0ffH
	DB	0ffH
	DB	0ffH
	DB	0ffH
	DB	0ffH
	DB	0ffH
	DB	0ffH
	DB	0ffH
	DB	0ffH
	DB	0ffH
	DB	0ffH
	DB	0ffH
	DB	0ffH
	DB	0ffH
	DB	0ffH
	DB	0ffH
	DB	0ffH
	DB	0ffH
	DB	0ffH
	DB	0ffH
	DB	0ffH
	DB	0ffH
	DB	0ffH
	DB	0ffH
	DB	0ffH
	DB	0ffH
	DB	0ffH
	DB	0ffH
	DB	076H
	DB	054H
	DB	076H
	DB	054H
	DB	076H
	DB	054H
	DB	076H
	DB	054H
	DB	056H
	DB	054H
	DB	076H
	DB	054H
	DB	056H
	DB	054H
	DB	057H
	DB	04cH
	DB	056H
	DB	054H
	DB	056H
	DB	054H
	DB	036H
	DB	04cH
	DB	056H
	DB	04cH
	DB	056H
	DB	04cH
	DB	056H
	DB	054H
	DB	056H
	DB	054H
	DB	036H
	DB	04cH
	DB	056H
	DB	04cH
	DB	056H
	DB	04cH
	DB	036H
	DB	04cH
	DB	056H
	DB	054H
	DB	036H
	DB	04cH
	DB	036H
	DB	04cH
	DB	035H
	DB	04cH
	DB	035H
	DB	04cH
	DB	056H
	DB	054H
	DB	036H
	DB	04cH
	DB	036H
	DB	04cH
	DB	056H
	DB	04cH
	DB	036H
	DB	04cH
	DB	036H
	DB	04cH
	DB	036H
	DB	04cH
	DB	036H
	DB	04cH
	DB	056H
	DB	04cH
	DB	056H
	DB	054H
	DB	056H
	DB	054H
	DB	056H
	DB	054H
	DB	057H
	DB	054H
	DB	056H
	DB	054H
	DB	076H
	DB	054H
	DB	076H
	DB	05cH
	DB	077H
	DB	054H
	DB	057H
	DB	054H
	DB	076H
	DB	054H
	DB	076H
	DB	05cH
	DB	097H
	DB	05cH
	DB	096H
	DB	05cH
	DB	076H
	DB	05cH
	DB	097H
	DB	05cH
	DB	096H
	DB	05cH
	DB	0b7H
	DB	064H
	DB	0b7H
	DB	064H
	DB	097H
	DB	05cH
	DB	0b7H
	DB	064H
	DB	0b7H
	DB	064H
	DB	0d7H
	DB	064H
	DB	0f7H
	DB	06cH
	DB	0f7H
	DB	06cH
	DB	0f8H
	DB	074H
	DB	018H
	DB	075H
	DB	038H
	DB	075H
	DB	058H
	DB	07dH
	DB	058H
	DB	07dH
	DB	058H
	DB	085H
	DB	099H
	DB	085H
	DB	099H
	DB	08dH
	DB	079H
	DB	08dH
	DB	078H
	DB	085H
	DB	078H
	DB	085H
	DB	099H
	DB	08dH
	DB	079H
	DB	085H
	DB	059H
	DB	085H
	DB	059H
	DB	07dH
	DB	018H
	DB	07dH
	DB	0b7H
	DB	064H
	DB	077H
	DB	054H
	DB	077H
	DB	05cH
	DB	077H
	DB	054H
	DB	077H
	DB	05cH
	DB	097H
	DB	05cH
	DB	097H
	DB	05cH
	DB	097H
	DB	05cH
	DB	097H
	DB	05cH
	DB	097H
	DB	05cH
	DB	098H
	DB	064H
	DB	0b7H
	DB	064H
	DB	0b7H
	DB	064H
	DB	0b7H
	DB	064H
	DB	0b8H
	DB	064H
	DB	0b7H
	DB	064H
	DB	0b7H
	DB	064H
	DB	0b8H
	DB	064H
	DB	0b7H
	DB	064H
	DB	0b8H
	DB	064H
	DB	0b7H
	DB	064H
	DB	0d7H
	DB	06cH
	DB	0d7H
	DB	06cH
	DB	0b8H
	DB	06cH
	DB	0b8H
	DB	06cH
	DB	0d8H
	DB	06cH
	DB	0d7H
	DB	06cH
	DB	0d8H
	DB	06cH
	DB	0d8H
	DB	06cH
	DB	0d7H
	DB	06cH
	DB	0f7H
	DB	06cH
	DB	0f8H
	DB	074H
	DB	0d8H
	DB	074H
	DB	0f8H
	DB	074H
	DB	0f8H
	DB	074H
	DB	0f8H
	DB	074H
	DB	0f8H
	DB	06cH
	DB	0f8H
	DB	074H
	DB	0f8H
	DB	074H
	DB	0f8H
	DB	074H
	DB	0f8H
	DB	074H
	DB	0f8H
	DB	074H
	DB	0f8H
	DB	074H
	DB	0f8H
	DB	074H
	DB	0f8H
	DB	074H
	DB	0d8H
	DB	074H
	DB	0d7H
	DB	074H
	DB	0f8H
	DB	074H
	DB	0f7H
	DB	074H
	DB	0f8H
	DB	07cH
	DB	0f8H
	DB	074H
	DB	0f7H
	DB	07cH
	DB	018H
	DB	07dH
	DB	018H
	DB	07dH
	DB	018H
	DB	07dH
	DB	018H
	DB	085H
	DB	038H
	DB	085H
	DB	038H
	DB	07dH
	DB	018H
	DB	07dH
	DB	038H
	DB	085H
	DB	038H
	DB	085H
	DB	038H
	DB	085H
	DB	038H
	DB	085H
	DB	038H
	DB	085H
	DB	038H
	DB	085H
	DB	038H
	DB	085H
	DB	058H
	DB	08dH
	DB	058H
	DB	08dH
	DB	059H
	DB	08dH
	DB	059H
	DB	08dH
	DB	078H
	DB	08dH
	DB	059H
	DB	08dH
	DB	078H
	DB	08dH
	DB	058H
	DB	095H
	DB	079H
	DB	095H
	DB	078H
	DB	08dH
	DB	079H
	DB	095H
	DB	058H
	DB	08dH
	DB	078H
	DB	095H
	DB	079H
	DB	095H
	DB	079H
	DB	095H
	DB	079H
	DB	095H
	DB	099H
	DB	09dH
	DB	099H
	DB	09dH
	DB	099H
	DB	09dH
	DB	099H
	DB	09dH
	DB	099H
	DB	09dH
	DB	099H
	DB	09dH
	DB	099H
	DB	09dH
	DB	099H
	DB	09dH
	DB	0b9H
	DB	0a5H
	DB	0b9H
	DB	09dH
	DB	0b9H
	DB	09dH
	DB	0b9H
	DB	09dH
	DB	0b9H
	DB	0a5H
	DB	0b9H
	DB	0a5H
	DB	0daH
	DB	0a5H
	DB	0d9H
	DB	0a5H
	DB	0daH
	DB	0a5H
	DB	0faH
	DB	0adH
	DB	0faH
	DB	0adH
	DB	0faH
	DB	0adH
	DB	0faH
	DB	0adH
	DB	01aH
	DB	0aeH
	DB	01aH
	DB	0b6H
	DB	03bH
	DB	0b6H
	DB	03bH
	DB	0b6H
	DB	03bH
	DB	0b6H
	DB	03bH
	DB	0b6H
	DB	05bH
	DB	0b6H
	DB	05bH
	DB	0b6H
	DB	03bH
	DB	0b6H
	DB	05bH
	DB	0beH
	DB	05bH
	DB	0b6H
	DB	07bH
	DB	0beH
	DB	07bH
	DB	0beH
	DB	07bH
	DB	0beH
	DB	07bH
	DB	0beH
	DB	07bH
	DB	0beH
	DB	07bH
	DB	0beH
	DB	07bH
	DB	0beH
	DB	09cH
	DB	0beH
	DB	09bH
	DB	0beH
	DB	09cH
	DB	0c6H
	DB	0bcH
	DB	0c6H
	DB	09cH
	DB	0beH
	DB	09cH
	DB	0c6H
	DB	0bcH
	DB	0c6H
	DB	0dcH
	DB	0c6H
	DB	0bcH
	DB	0c6H
	DB	0bcH
	DB	0ceH
	DB	0dcH
	DB	0ceH
	DB	0dcH
	DB	0ceH
	DB	0fdH
	DB	0ceH
	DB	0fdH
	DB	0ceH
	DB	0fdH
	DB	0ceH
	DB	0fdH
	DB	0d6H
	DB	0fdH
	DB	0d6H
	DB	01dH
	DB	0d7H
	DB	03dH
	DB	0dfH
	DB	01eH
	DB	0d7H
	DB	01eH
	DB	0dfH
	DB	03eH
	DB	0dfH
	DB	05eH
	DB	0dfH
	DB	05eH
	DB	0e7H
	DB	07eH
	DB	0efH
	DB	09fH
	DB	0efH
	DB	0bfH
	DB	0f7H
	DB	0bfH
	DB	0f7H
	DB	0dfH
	DB	0ffH
	DB	0ffH
	DB	0ffH
	DB	0dfH
	DB	0ffH
	DB	0dfH
	DB	0ffH
	DB	0ffH
	DB	0ffH
	DB	0ffH
	DB	0ffH
	DB	0ffH
	DB	0ffH
	DB	0ffH
	DB	0ffH
	DB	0ffH
	DB	0ffH
	DB	0ffH
	DB	0ffH
	DB	0ffH
	DB	0ffH
	DB	0ffH
	DB	0ffH
	DB	0ffH
	DB	0ffH
	DB	0ffH
	DB	0ffH
	DB	0ffH
	DB	0ffH
	DB	0ffH
	DB	0ffH
	DB	0ffH
	DB	0ffH
	DB	0ffH
	DB	0ffH
	DB	076H
	DB	054H
	DB	057H
	DB	054H
	DB	076H
	DB	054H
	DB	056H
	DB	054H
	DB	056H
	DB	054H
	DB	056H
	DB	04cH
	DB	057H
	DB	054H
	DB	056H
	DB	04cH
	DB	056H
	DB	054H
	DB	056H
	DB	054H
	DB	056H
	DB	04cH
	DB	036H
	DB	04cH
	DB	036H
	DB	04cH
	DB	036H
	DB	04cH
	DB	036H
	DB	04cH
	DB	056H
	DB	04cH
	DB	036H
	DB	04cH
	DB	036H
	DB	04cH
	DB	056H
	DB	04cH
	DB	036H
	DB	04cH
	DB	036H
	DB	04cH
	DB	036H
	DB	04cH
	DB	036H
	DB	054H
	DB	056H
	DB	04cH
	DB	036H
	DB	04cH
	DB	036H
	DB	04cH
	DB	035H
	DB	04cH
	DB	036H
	DB	04cH
	DB	036H
	DB	04cH
	DB	056H
	DB	04cH
	DB	036H
	DB	04cH
	DB	036H
	DB	04cH
	DB	036H
	DB	04cH
	DB	056H
	DB	04cH
	DB	056H
	DB	04cH
	DB	056H
	DB	054H
	DB	056H
	DB	054H
	DB	056H
	DB	054H
	DB	056H
	DB	054H
	DB	057H
	DB	054H
	DB	056H
	DB	054H
	DB	077H
	DB	054H
	DB	077H
	DB	054H
	DB	077H
	DB	05cH
	DB	076H
	DB	054H
	DB	076H
	DB	05cH
	DB	097H
	DB	05cH
	DB	096H
	DB	05cH
	DB	097H
	DB	05cH
	DB	097H
	DB	05cH
	DB	097H
	DB	05cH
	DB	097H
	DB	05cH
	DB	097H
	DB	064H
	DB	0b7H
	DB	064H
	DB	0b7H
	DB	064H
	DB	0b7H
	DB	064H
	DB	0d7H
	DB	064H
	DB	0f8H
	DB	06cH
	DB	0f8H
	DB	06cH
	DB	018H
	DB	075H
	DB	018H
	DB	075H
	DB	038H
	DB	07dH
	DB	038H
	DB	07dH
	DB	058H
	DB	085H
	DB	079H
	DB	085H
	DB	099H
	DB	08dH
	DB	099H
	DB	08dH
	DB	099H
	DB	08dH
	DB	079H
	DB	085H
	DB	098H
	DB	085H
	DB	079H
	DB	085H
	DB	038H
	DB	07dH
	DB	0f8H
	DB	06cH
	DB	077H
	DB	05cH
	DB	077H
	DB	054H
	DB	077H
	DB	05cH
	DB	077H
	DB	05cH
	DB	097H
	DB	05cH
	DB	077H
	DB	05cH
	DB	077H
	DB	05cH
	DB	097H
	DB	05cH
	DB	077H
	DB	05cH
	DB	077H
	DB	05cH
	DB	097H
	DB	05cH
	DB	097H
	DB	05cH
	DB	097H
	DB	05cH
	DB	097H
	DB	05cH
	DB	077H
	DB	05cH
	DB	097H
	DB	05cH
	DB	0b7H
	DB	064H
	DB	0b7H
	DB	064H
	DB	0b7H
	DB	064H
	DB	0b7H
	DB	064H
	DB	0b7H
	DB	064H
	DB	0b7H
	DB	064H
	DB	0b7H
	DB	064H
	DB	0d7H
	DB	064H
	DB	0d7H
	DB	06cH
	DB	0d7H
	DB	06cH
	DB	0d7H
	DB	06cH
	DB	0d7H
	DB	06cH
	DB	0d8H
	DB	074H
	DB	0f8H
	DB	074H
	DB	0f8H
	DB	074H
	DB	0f8H
	DB	074H
	DB	0f8H
	DB	074H
	DB	0f7H
	DB	074H
	DB	0d7H
	DB	074H
	DB	0f7H
	DB	06cH
	DB	0f8H
	DB	074H
	DB	0f7H
	DB	074H
	DB	0f7H
	DB	074H
	DB	0f8H
	DB	074H
	DB	0f8H
	DB	074H
	DB	0f7H
	DB	074H
	DB	018H
	DB	075H
	DB	0f7H
	DB	074H
	DB	0f8H
	DB	074H
	DB	0f8H
	DB	074H
	DB	0d8H
	DB	074H
	DB	0d7H
	DB	074H
	DB	0d8H
	DB	074H
	DB	0f7H
	DB	074H
	DB	0f8H
	DB	074H
	DB	0f8H
	DB	074H
	DB	0f8H
	DB	074H
	DB	0f7H
	DB	074H
	DB	0f8H
	DB	074H
	DB	0f8H
	DB	074H
	DB	0f8H
	DB	07cH
	DB	0f8H
	DB	07cH
	DB	018H
	DB	07dH
	DB	018H
	DB	07dH
	DB	018H
	DB	07dH
	DB	018H
	DB	07dH
	DB	018H
	DB	085H
	DB	018H
	DB	085H
	DB	018H
	DB	07dH
	DB	038H
	DB	085H
	DB	018H
	DB	085H
	DB	038H
	DB	085H
	DB	038H
	DB	085H
	DB	038H
	DB	085H
	DB	038H
	DB	085H
	DB	038H
	DB	085H
	DB	038H
	DB	085H
	DB	038H
	DB	085H
	DB	038H
	DB	08dH
	DB	058H
	DB	08dH
	DB	058H
	DB	08dH
	DB	058H
	DB	08dH
	DB	078H
	DB	08dH
	DB	079H
	DB	095H
	DB	079H
	DB	095H
	DB	078H
	DB	095H
	DB	079H
	DB	095H
	DB	079H
	DB	095H
	DB	099H
	DB	095H
	DB	099H
	DB	09dH
	DB	0b9H
	DB	09dH
	DB	0b9H
	DB	0a5H
	DB	0b9H
	DB	0a5H
	DB	0baH
	DB	0a5H
	DB	0d9H
	DB	0a5H
	DB	0d9H
	DB	0a5H
	DB	0daH
	DB	0adH
	DB	0faH
	DB	0adH
	DB	0faH
	DB	0adH
	DB	01aH
	DB	0aeH
	DB	01aH
	DB	0aeH
	DB	01aH
	DB	0aeH
	DB	01aH
	DB	0b6H
	DB	01aH
	DB	0b6H
	DB	01aH
	DB	0b6H
	DB	01aH
	DB	0b6H
	DB	01aH
	DB	0b6H
	DB	01aH
	DB	0aeH
	DB	01aH
	DB	0b6H
	DB	01aH
	DB	0aeH
	DB	01bH
	DB	0b6H
	DB	01aH
	DB	0b6H
	DB	01aH
	DB	0aeH
	DB	0faH
	DB	0adH
	DB	01aH
	DB	0b6H
	DB	03bH
	DB	0b6H
	DB	01aH
	DB	0b6H
	DB	03aH
	DB	0b6H
	DB	01aH
	DB	0b6H
	DB	01bH
	DB	0b6H
	DB	03bH
	DB	0b6H
	DB	03bH
	DB	0b6H
	DB	03bH
	DB	0b6H
	DB	05bH
	DB	0b6H
	DB	05bH
	DB	0b6H
	DB	05bH
	DB	0b6H
	DB	05bH
	DB	0b6H
	DB	07bH
	DB	0beH
	DB	07bH
	DB	0beH
	DB	09bH
	DB	0beH
	DB	07bH
	DB	0beH
	DB	09cH
	DB	0beH
	DB	09cH
	DB	0c6H
	DB	0bcH
	DB	0c6H
	DB	0bcH
	DB	0c6H
	DB	0dcH
	DB	0c6H
	DB	0bdH
	DB	0c6H
	DB	0ddH
	DB	0ceH
	DB	0fdH
	DB	0ceH
	DB	0fdH
	DB	0ceH
	DB	0fdH
	DB	0ceH
	DB	0fdH
	DB	0d6H
	DB	0fdH
	DB	0d6H
	DB	01eH
	DB	0d7H
	DB	01dH
	DB	0d7H
	DB	03eH
	DB	0dfH
	DB	05eH
	DB	0dfH
	DB	05eH
	DB	0e7H
	DB	07eH
	DB	0e7H
	DB	07fH
	DB	0e7H
	DB	0bfH
	DB	0f7H
	DB	0bfH
	DB	0f7H
	DB	0dfH
	DB	0ffH
	DB	0ffH
	DB	0ffH
	DB	0ffH
	DB	0ffH
	DB	0ffH
	DB	0ffH
	DB	0ffH
	DB	0ffH
	DB	0dfH
	DB	0ffH
	DB	0ffH
	DB	0ffH
	DB	0ffH
	DB	0ffH
	DB	0dfH
	DB	0ffH
	DB	0ffH
	DB	0ffH
	DB	0ffH
	DB	0ffH
	DB	0ffH
	DB	0ffH
	DB	0ffH
	DB	0ffH
	DB	0ffH
	DB	0ffH
	DB	0ffH
	DB	0ffH
	DB	0ffH
	DB	0ffH
	DB	0ffH
	DB	0ffH
	DB	0ffH
	DB	0ffH
	DB	0ffH
	DB	0ffH
	DB	077H
	DB	054H
	DB	076H
	DB	054H
	DB	077H
	DB	054H
	DB	056H
	DB	054H
	DB	076H
	DB	054H
	DB	056H
	DB	054H
	DB	056H
	DB	04cH
	DB	056H
	DB	054H
	DB	056H
	DB	04cH
	DB	056H
	DB	04cH
	DB	057H
	DB	04cH
	DB	056H
	DB	04cH
	DB	036H
	DB	054H
	DB	036H
	DB	04cH
	DB	036H
	DB	04cH
	DB	056H
	DB	04cH
	DB	036H
	DB	04cH
	DB	056H
	DB	04cH
	DB	036H
	DB	04cH
	DB	056H
	DB	04cH
	DB	036H
	DB	04cH
	DB	036H
	DB	04cH
	DB	036H
	DB	04cH
	DB	036H
	DB	04cH
	DB	036H
	DB	04cH
	DB	036H
	DB	04cH
	DB	036H
	DB	04cH
	DB	056H
	DB	04cH
	DB	036H
	DB	054H
	DB	056H
	DB	04cH
	DB	056H
	DB	04cH
	DB	036H
	DB	04cH
	DB	036H
	DB	04cH
	DB	056H
	DB	04cH
	DB	056H
	DB	04cH
	DB	056H
	DB	054H
	DB	056H
	DB	04cH
	DB	056H
	DB	04cH
	DB	056H
	DB	054H
	DB	056H
	DB	054H
	DB	056H
	DB	054H
	DB	076H
	DB	054H
	DB	076H
	DB	054H
	DB	077H
	DB	054H
	DB	077H
	DB	05cH
	DB	077H
	DB	05cH
	DB	097H
	DB	05cH
	DB	097H
	DB	05cH
	DB	096H
	DB	05cH
	DB	097H
	DB	05cH
	DB	097H
	DB	05cH
	DB	0b7H
	DB	05cH
	DB	0b7H
	DB	05cH
	DB	0b7H
	DB	05cH
	DB	0b7H
	DB	064H
	DB	0d7H
	DB	064H
	DB	0d8H
	DB	06cH
	DB	0d7H
	DB	064H
	DB	0f7H
	DB	06cH
	DB	0f8H
	DB	06cH
	DB	018H
	DB	075H
	DB	038H
	DB	075H
	DB	038H
	DB	07dH
	DB	059H
	DB	085H
	DB	099H
	DB	085H
	DB	099H
	DB	08dH
	DB	0b9H
	DB	08dH
	DB	099H
	DB	08dH
	DB	099H
	DB	08dH
	DB	099H
	DB	08dH
	DB	079H
	DB	085H
	DB	058H
	DB	085H
	DB	0d7H
	DB	06cH
	DB	077H
	DB	05cH
	DB	0b7H
	DB	05cH
	DB	097H
	DB	05cH
	DB	097H
	DB	05cH
	DB	097H
	DB	05cH
	DB	077H
	DB	054H
	DB	077H
	DB	05cH
	DB	077H
	DB	05cH
	DB	077H
	DB	05cH
	DB	097H
	DB	05cH
	DB	077H
	DB	05cH
	DB	077H
	DB	05cH
	DB	077H
	DB	05cH
	DB	077H
	DB	05cH
	DB	097H
	DB	05cH
	DB	097H
	DB	05cH
	DB	097H
	DB	05cH
	DB	0b7H
	DB	064H
	DB	097H
	DB	064H
	DB	0b7H
	DB	064H
	DB	0b7H
	DB	064H
	DB	0b7H
	DB	064H
	DB	0b7H
	DB	064H
	DB	0b7H
	DB	064H
	DB	0b8H
	DB	064H
	DB	0d7H
	DB	064H
	DB	0d8H
	DB	06cH
	DB	0d7H
	DB	06cH
	DB	0d7H
	DB	06cH
	DB	0d7H
	DB	06cH
	DB	0d7H
	DB	06cH
	DB	0d7H
	DB	06cH
	DB	0d7H
	DB	06cH
	DB	0d8H
	DB	074H
	DB	0f7H
	DB	06cH
	DB	0f8H
	DB	074H
	DB	0f7H
	DB	074H
	DB	0f8H
	DB	074H
	DB	0f7H
	DB	074H
	DB	0f8H
	DB	074H
	DB	0f8H
	DB	074H
	DB	0f7H
	DB	074H
	DB	0d7H
	DB	074H
	DB	0d7H
	DB	074H
	DB	0d7H
	DB	074H
	DB	0d7H
	DB	074H
	DB	0d8H
	DB	06cH
	DB	0d7H
	DB	06cH
	DB	0d7H
	DB	06cH
	DB	0d7H
	DB	06cH
	DB	0d7H
	DB	074H
	DB	0d7H
	DB	074H
	DB	0d7H
	DB	074H
	DB	0f8H
	DB	074H
	DB	0f7H
	DB	074H
	DB	0f8H
	DB	074H
	DB	0f8H
	DB	074H
	DB	018H
	DB	07dH
	DB	018H
	DB	07dH
	DB	018H
	DB	07dH
	DB	018H
	DB	07dH
	DB	038H
	DB	07dH
	DB	038H
	DB	07dH
	DB	038H
	DB	085H
	DB	018H
	DB	085H
	DB	058H
	DB	085H
	DB	059H
	DB	085H
	DB	058H
	DB	085H
	DB	058H
	DB	085H
	DB	058H
	DB	08dH
	DB	059H
	DB	08dH
	DB	059H
	DB	08dH
	DB	079H
	DB	095H
	DB	079H
	DB	08dH
	DB	079H
	DB	095H
	DB	079H
	DB	095H
	DB	099H
	DB	095H
	DB	079H
	DB	095H
	DB	099H
	DB	095H
	DB	099H
	DB	095H
	DB	099H
	DB	09dH
	DB	0b9H
	DB	09dH
	DB	099H
	DB	09dH
	DB	0b9H
	DB	09dH
	DB	0b9H
	DB	09dH
	DB	099H
	DB	09dH
	DB	099H
	DB	09dH
	DB	0b9H
	DB	09dH
	DB	0b9H
	DB	09dH
	DB	0baH
	DB	0a5H
	DB	0b9H
	DB	0a5H
	DB	0b9H
	DB	0a5H
	DB	0d9H
	DB	0a5H
	DB	0b9H
	DB	0a5H
	DB	0b9H
	DB	09dH
	DB	0b9H
	DB	0a5H
	DB	0b9H
	DB	09dH
	DB	0b9H
	DB	0a5H
	DB	099H
	DB	09dH
	DB	0b9H
	DB	0a5H
	DB	0b9H
	DB	09dH
	DB	0daH
	DB	0a5H
	DB	0daH
	DB	0a5H
	DB	0daH
	DB	0a5H
	DB	0daH
	DB	0a5H
	DB	0d9H
	DB	0a5H
	DB	0daH
	DB	0a5H
	DB	0faH
	DB	0adH
	DB	0faH
	DB	0adH
	DB	0faH
	DB	0adH
	DB	0faH
	DB	0adH
	DB	01aH
	DB	0aeH
	DB	01aH
	DB	0aeH
	DB	01bH
	DB	0aeH
	DB	01bH
	DB	0aeH
	DB	03aH
	DB	0aeH
	DB	03bH
	DB	0b6H
	DB	05bH
	DB	0b6H
	DB	05bH
	DB	0b6H
	DB	05bH
	DB	0b6H
	DB	05bH
	DB	0beH
	DB	05bH
	DB	0beH
	DB	05bH
	DB	0beH
	DB	07bH
	DB	0beH
	DB	07bH
	DB	0beH
	DB	07cH
	DB	0beH
	DB	09cH
	DB	0c6H
	DB	09cH
	DB	0c6H
	DB	0bcH
	DB	0c6H
	DB	0bcH
	DB	0c6H
	DB	0bcH
	DB	0c6H
	DB	0dcH
	DB	0c6H
	DB	0ddH
	DB	0c6H
	DB	0dcH
	DB	0ceH
	DB	0fdH
	DB	0ceH
	DB	0fdH
	DB	0ceH
	DB	0fdH
	DB	0d6H
	DB	0fdH
	DB	0d6H
	DB	01eH
	DB	0d7H
	DB	01eH
	DB	0d7H
	DB	03eH
	DB	0dfH
	DB	03eH
	DB	0dfH
	DB	05eH
	DB	0dfH
	DB	07eH
	DB	0e7H
	DB	07fH
	DB	0efH
	DB	09fH
	DB	0efH
	DB	0dfH
	DB	0f7H
	DB	0dfH
	DB	0ffH
	DB	0ffH
	DB	0ffH
	DB	0ffH
	DB	0ffH
	DB	0ffH
	DB	0ffH
	DB	0ffH
	DB	0ffH
	DB	0dfH
	DB	0ffH
	DB	0dfH
	DB	0ffH
	DB	0ffH
	DB	0ffH
	DB	0ffH
	DB	0ffH
	DB	0ffH
	DB	0ffH
	DB	0ffH
	DB	0ffH
	DB	0ffH
	DB	0ffH
	DB	0ffH
	DB	0ffH
	DB	0ffH
	DB	0ffH
	DB	0ffH
	DB	0ffH
	DB	0ffH
	DB	0ffH
	DB	0ffH
	DB	0ffH
	DB	0ffH
	DB	0ffH
	DB	0ffH
	DB	0ffH
	DB	0ffH
	DB	0ffH
	DB	076H
	DB	054H
	DB	076H
	DB	04cH
	DB	076H
	DB	04cH
	DB	077H
	DB	04cH
	DB	077H
	DB	054H
	DB	076H
	DB	054H
	DB	076H
	DB	04cH
	DB	057H
	DB	054H
	DB	056H
	DB	054H
	DB	056H
	DB	04cH
	DB	057H
	DB	054H
	DB	056H
	DB	054H
	DB	056H
	DB	04cH
	DB	056H
	DB	04cH
	DB	056H
	DB	04cH
	DB	036H
	DB	04cH
	DB	056H
	DB	04cH
	DB	036H
	DB	04cH
	DB	035H
	DB	04cH
	DB	035H
	DB	04cH
	DB	036H
	DB	04cH
	DB	055H
	DB	04cH
	DB	055H
	DB	04cH
	DB	035H
	DB	04cH
	DB	036H
	DB	04cH
	DB	055H
	DB	04cH
	DB	036H
	DB	04cH
	DB	056H
	DB	04cH
	DB	036H
	DB	04cH
	DB	036H
	DB	04cH
	DB	056H
	DB	04cH
	DB	056H
	DB	054H
	DB	056H
	DB	04cH
	DB	056H
	DB	04cH
	DB	036H
	DB	04cH
	DB	056H
	DB	04cH
	DB	036H
	DB	04cH
	DB	057H
	DB	054H
	DB	056H
	DB	054H
	DB	056H
	DB	054H
	DB	056H
	DB	054H
	DB	056H
	DB	054H
	DB	076H
	DB	054H
	DB	077H
	DB	054H
	DB	076H
	DB	054H
	DB	076H
	DB	054H
	DB	077H
	DB	054H
	DB	077H
	DB	054H
	DB	097H
	DB	05cH
	DB	097H
	DB	05cH
	DB	096H
	DB	05cH
	DB	097H
	DB	05cH
	DB	0b7H
	DB	05cH
	DB	097H
	DB	064H
	DB	097H
	DB	05cH
	DB	0b7H
	DB	064H
	DB	0d7H
	DB	064H
	DB	0d7H
	DB	064H
	DB	0d7H
	DB	06cH
	DB	0d7H
	DB	06cH
	DB	018H
	DB	06dH
	DB	018H
	DB	075H
	DB	038H
	DB	075H
	DB	058H
	DB	07dH
	DB	079H
	DB	085H
	DB	099H
	DB	08dH
	DB	099H
	DB	08dH
	DB	0b9H
	DB	08dH
	DB	099H
	DB	08dH
	DB	099H
	DB	08dH
	DB	099H
	DB	08dH
	DB	079H
	DB	085H
	DB	038H
	DB	07dH
	DB	038H
	DB	075H
	DB	018H
	DB	075H
	DB	0b7H
	DB	064H
	DB	077H
	DB	054H
	DB	077H
	DB	05cH
	DB	097H
	DB	05cH
	DB	097H
	DB	05cH
	DB	077H
	DB	05cH
	DB	097H
	DB	05cH
	DB	097H
	DB	054H
	DB	077H
	DB	054H
	DB	097H
	DB	05cH
	DB	097H
	DB	05cH
	DB	097H
	DB	05cH
	DB	0b7H
	DB	05cH
	DB	0b7H
	DB	064H
	DB	0b7H
	DB	05cH
	DB	097H
	DB	05cH
	DB	097H
	DB	064H
	DB	097H
	DB	064H
	DB	0b7H
	DB	064H
	DB	0b8H
	DB	064H
	DB	0b7H
	DB	064H
	DB	0b7H
	DB	064H
	DB	0b7H
	DB	064H
	DB	0b7H
	DB	064H
	DB	0b7H
	DB	06cH
	DB	0d7H
	DB	06cH
	DB	0b7H
	DB	06cH
	DB	0d8H
	DB	06cH
	DB	0d7H
	DB	06cH
	DB	0d8H
	DB	06cH
	DB	0f7H
	DB	06cH
	DB	0d8H
	DB	06cH
	DB	0f8H
	DB	06cH
	DB	0d7H
	DB	06cH
	DB	0d8H
	DB	06cH
	DB	0d7H
	DB	06cH
	DB	0f8H
	DB	06cH
	DB	0f7H
	DB	074H
	DB	0f7H
	DB	074H
	DB	0f8H
	DB	074H
	DB	0f8H
	DB	06cH
	DB	0d8H
	DB	074H
	DB	0f7H
	DB	074H
	DB	0f8H
	DB	06cH
	DB	0d8H
	DB	06cH
	DB	0d7H
	DB	06cH
	DB	0d8H
	DB	074H
	DB	0d8H
	DB	074H
	DB	0f8H
	DB	074H
	DB	0f7H
	DB	074H
	DB	0f8H
	DB	074H
	DB	0f8H
	DB	07cH
	DB	018H
	DB	07dH
	DB	018H
	DB	07dH
	DB	038H
	DB	07dH
	DB	038H
	DB	085H
	DB	038H
	DB	085H
	DB	058H
	DB	085H
	DB	038H
	DB	085H
	DB	058H
	DB	08dH
	DB	059H
	DB	085H
	DB	059H
	DB	085H
	DB	059H
	DB	08dH
	DB	079H
	DB	08dH
	DB	079H
	DB	08dH
	DB	079H
	DB	08dH
	DB	079H
	DB	08dH
	DB	059H
	DB	08dH
	DB	058H
	DB	08dH
	DB	078H
	DB	08dH
	DB	058H
	DB	08dH
	DB	058H
	DB	08dH
	DB	058H
	DB	08dH
	DB	058H
	DB	08dH
	DB	059H
	DB	08dH
	DB	058H
	DB	08dH
	DB	038H
	DB	08dH
	DB	058H
	DB	08dH
	DB	058H
	DB	08dH
	DB	058H
	DB	08dH
	DB	058H
	DB	08dH
	DB	058H
	DB	08dH
	DB	058H
	DB	08dH
	DB	059H
	DB	095H
	DB	059H
	DB	095H
	DB	058H
	DB	095H
	DB	079H
	DB	095H
	DB	078H
	DB	095H
	DB	079H
	DB	095H
	DB	099H
	DB	095H
	DB	099H
	DB	09dH
	DB	099H
	DB	095H
	DB	079H
	DB	09dH
	DB	099H
	DB	09dH
	DB	099H
	DB	09dH
	DB	099H
	DB	09dH
	DB	099H
	DB	09dH
	DB	0b9H
	DB	09dH
	DB	0b9H
	DB	09dH
	DB	0b9H
	DB	0a5H
	DB	0d9H
	DB	0a5H
	DB	0d9H
	DB	0a5H
	DB	0daH
	DB	0a5H
	DB	0daH
	DB	0a5H
	DB	0faH
	DB	0a5H
	DB	0faH
	DB	0a5H
	DB	0faH
	DB	0a5H
	DB	0faH
	DB	0adH
	DB	01aH
	DB	0aeH
	DB	01aH
	DB	0aeH
	DB	01aH
	DB	0aeH
	DB	01aH
	DB	0aeH
	DB	03aH
	DB	0b6H
	DB	03bH
	DB	0b6H
	DB	03aH
	DB	0b6H
	DB	03aH
	DB	0b6H
	DB	03bH
	DB	0b6H
	DB	03aH
	DB	0b6H
	DB	05bH
	DB	0b6H
	DB	05bH
	DB	0beH
	DB	05bH
	DB	0b6H
	DB	07bH
	DB	0beH
	DB	07cH
	DB	0beH
	DB	07bH
	DB	0beH
	DB	09bH
	DB	0beH
	DB	09bH
	DB	0beH
	DB	09cH
	DB	0beH
	DB	0bcH
	DB	0c6H
	DB	0bcH
	DB	0c6H
	DB	0bcH
	DB	0c6H
	DB	0dcH
	DB	0ceH
	DB	0ddH
	DB	0ceH
	DB	0ddH
	DB	0ceH
	DB	0fdH
	DB	0ceH
	DB	0fdH
	DB	0ceH
	DB	01dH
	DB	0d7H
	DB	03eH
	DB	0d7H
	DB	03eH
	DB	0dfH
	DB	03eH
	DB	0dfH
	DB	05eH
	DB	0e7H
	DB	07eH
	DB	0e7H
	DB	09fH
	DB	0efH
	DB	0bfH
	DB	0f7H
	DB	0bfH
	DB	0f7H
	DB	0ffH
	DB	0ffH
	DB	0ffH
	DB	0ffH
	DB	0ffH
	DB	0ffH
	DB	0ffH
	DB	0ffH
	DB	0ffH
	DB	0ffH
	DB	0ffH
	DB	0ffH
	DB	0ffH
	DB	0ffH
	DB	0ffH
	DB	0ffH
	DB	0ffH
	DB	0ffH
	DB	0ffH
	DB	0ffH
	DB	0ffH
	DB	0ffH
	DB	0ffH
	DB	0ffH
	DB	0ffH
	DB	0ffH
	DB	0ffH
	DB	0ffH
	DB	0ffH
	DB	0ffH
	DB	0ffH
	DB	0ffH
	DB	0ffH
	DB	0ffH
	DB	0ffH
	DB	0ffH
	DB	0ffH
	DB	0ffH
	DB	0ffH
	DB	0ffH
	DB	0ffH
	DB	0ffH
	DB	056H
	DB	04cH
	DB	056H
	DB	054H
	DB	056H
	DB	054H
	DB	056H
	DB	04cH
	DB	056H
	DB	04cH
	DB	056H
	DB	04cH
	DB	056H
	DB	04cH
	DB	057H
	DB	054H
	DB	056H
	DB	04cH
	DB	056H
	DB	04cH
	DB	056H
	DB	04cH
	DB	036H
	DB	04cH
	DB	056H
	DB	04cH
	DB	056H
	DB	04cH
	DB	036H
	DB	04cH
	DB	056H
	DB	04cH
	DB	036H
	DB	04cH
	DB	036H
	DB	04cH
	DB	036H
	DB	04cH
	DB	036H
	DB	04cH
	DB	036H
	DB	04cH
	DB	036H
	DB	04cH
	DB	036H
	DB	04cH
	DB	036H
	DB	04cH
	DB	036H
	DB	04cH
	DB	036H
	DB	04cH
	DB	036H
	DB	04cH
	DB	036H
	DB	04cH
	DB	036H
	DB	04cH
	DB	036H
	DB	04cH
	DB	036H
	DB	04cH
	DB	036H
	DB	04cH
	DB	036H
	DB	04cH
	DB	036H
	DB	04cH
	DB	036H
	DB	04cH
	DB	056H
	DB	054H
	DB	056H
	DB	054H
	DB	056H
	DB	04cH
	DB	056H
	DB	054H
	DB	056H
	DB	04cH
	DB	057H
	DB	054H
	DB	057H
	DB	054H
	DB	056H
	DB	054H
	DB	057H
	DB	054H
	DB	076H
	DB	054H
	DB	076H
	DB	054H
	DB	077H
	DB	054H
	DB	076H
	DB	05cH
	DB	076H
	DB	05cH
	DB	076H
	DB	05cH
	DB	097H
	DB	05cH
	DB	077H
	DB	05cH
	DB	096H
	DB	05cH
	DB	097H
	DB	05cH
	DB	097H
	DB	05cH
	DB	097H
	DB	05cH
	DB	0b7H
	DB	064H
	DB	0b7H
	DB	064H
	DB	0d7H
	DB	064H
	DB	0d7H
	DB	06cH
	DB	0d7H
	DB	06cH
	DB	018H
	DB	075H
	DB	038H
	DB	075H
	DB	038H
	DB	07dH
	DB	058H
	DB	085H
	DB	079H
	DB	085H
	DB	079H
	DB	085H
	DB	098H
	DB	08dH
	DB	078H
	DB	08dH
	DB	079H
	DB	085H
	DB	079H
	DB	085H
	DB	058H
	DB	07dH
	DB	059H
	DB	07dH
	DB	059H
	DB	07dH
	DB	079H
	DB	085H
	DB	058H
	DB	085H
	DB	018H
	DB	075H
	DB	0b7H
	DB	064H
	DB	097H
	DB	05cH
	DB	097H
	DB	05cH
	DB	097H
	DB	05cH
	DB	097H
	DB	05cH
	DB	097H
	DB	05cH
	DB	097H
	DB	05cH
	DB	097H
	DB	05cH
	DB	097H
	DB	05cH
	DB	097H
	DB	05cH
	DB	097H
	DB	05cH
	DB	097H
	DB	05cH
	DB	097H
	DB	05cH
	DB	097H
	DB	05cH
	DB	0b7H
	DB	064H
	DB	0b8H
	DB	064H
	DB	0b7H
	DB	064H
	DB	0b7H
	DB	064H
	DB	0b8H
	DB	064H
	DB	0b7H
	DB	064H
	DB	0b7H
	DB	064H
	DB	0b8H
	DB	06cH
	DB	0d8H
	DB	064H
	DB	0d8H
	DB	06cH
	DB	0b8H
	DB	06cH
	DB	0d8H
	DB	06cH
	DB	0d8H
	DB	06cH
	DB	0f8H
	DB	06cH
	DB	0d8H
	DB	074H
	DB	0d7H
	DB	06cH
	DB	0f8H
	DB	074H
	DB	0f8H
	DB	074H
	DB	0f8H
	DB	074H
	DB	0f8H
	DB	074H
	DB	0f8H
	DB	074H
	DB	0f8H
	DB	074H
	DB	0f8H
	DB	074H
	DB	0f8H
	DB	074H
	DB	0f8H
	DB	074H
	DB	018H
	DB	07dH
	DB	018H
	DB	07dH
	DB	018H
	DB	07dH
	DB	038H
	DB	07dH
	DB	018H
	DB	07dH
	DB	018H
	DB	07dH
	DB	018H
	DB	07dH
	DB	018H
	DB	07dH
	DB	018H
	DB	075H
	DB	018H
	DB	07dH
	DB	018H
	DB	07dH
	DB	018H
	DB	07dH
	DB	018H
	DB	07dH
	DB	018H
	DB	07dH
	DB	018H
	DB	07dH
	DB	018H
	DB	07dH
	DB	018H
	DB	07dH
	DB	018H
	DB	07dH
	DB	018H
	DB	07dH
	DB	0f8H
	DB	07cH
	DB	018H
	DB	07dH
	DB	018H
	DB	07dH
	DB	018H
	DB	07dH
	DB	018H
	DB	07dH
	DB	0f7H
	DB	07cH
	DB	0f8H
	DB	07cH
	DB	018H
	DB	07dH
	DB	018H
	DB	085H
	DB	038H
	DB	085H
	DB	018H
	DB	07dH
	DB	018H
	DB	07dH
	DB	018H
	DB	085H
	DB	018H
	DB	07dH
	DB	018H
	DB	085H
	DB	018H
	DB	085H
	DB	038H
	DB	085H
	DB	038H
	DB	08dH
	DB	038H
	DB	08dH
	DB	058H
	DB	085H
	DB	058H
	DB	08dH
	DB	058H
	DB	095H
	DB	079H
	DB	095H
	DB	079H
	DB	095H
	DB	078H
	DB	095H
	DB	058H
	DB	095H
	DB	079H
	DB	095H
	DB	078H
	DB	095H
	DB	099H
	DB	09dH
	DB	099H
	DB	09dH
	DB	099H
	DB	09dH
	DB	079H
	DB	09dH
	DB	099H
	DB	09dH
	DB	099H
	DB	09dH
	DB	099H
	DB	09dH
	DB	099H
	DB	09dH
	DB	0b9H
	DB	09dH
	DB	0b9H
	DB	0a5H
	DB	0b9H
	DB	0a5H
	DB	0baH
	DB	0a5H
	DB	0d9H
	DB	0a5H
	DB	0b9H
	DB	0a5H
	DB	0daH
	DB	0a5H
	DB	0d9H
	DB	0a5H
	DB	0daH
	DB	0a5H
	DB	0daH
	DB	0adH
	DB	0d9H
	DB	0a5H
	DB	0daH
	DB	0adH
	DB	0faH
	DB	0adH
	DB	0faH
	DB	0adH
	DB	0faH
	DB	0adH
	DB	01aH
	DB	0aeH
	DB	01aH
	DB	0aeH
	DB	01aH
	DB	0aeH
	DB	03bH
	DB	0b6H
	DB	03bH
	DB	0b6H
	DB	05bH
	DB	0b6H
	DB	05bH
	DB	0beH
	DB	05bH
	DB	0beH
	DB	05bH
	DB	0b6H
	DB	05bH
	DB	0b6H
	DB	07bH
	DB	0beH
	DB	07bH
	DB	0beH
	DB	07cH
	DB	0beH
	DB	09cH
	DB	0beH
	DB	09cH
	DB	0beH
	DB	0bcH
	DB	0c6H
	DB	0bcH
	DB	0c6H
	DB	0bcH
	DB	0c6H
	DB	0ddH
	DB	0ceH
	DB	0ddH
	DB	0ceH
	DB	0fdH
	DB	0ceH
	DB	0fdH
	DB	0ceH
	DB	0fdH
	DB	0d6H
	DB	01dH
	DB	0d7H
	DB	0fdH
	DB	0d6H
	DB	01dH
	DB	0d7H
	DB	05eH
	DB	0dfH
	DB	05eH
	DB	0e7H
	DB	07eH
	DB	0e7H
	DB	09fH
	DB	0efH
	DB	0bfH
	DB	0f7H
	DB	0ffH
	DB	0ffH
	DB	0ffH
	DB	0ffH
	DB	0ffH
	DB	0ffH
	DB	0dfH
	DB	0ffH
	DB	0ffH
	DB	0ffH
	DB	0ffH
	DB	0ffH
	DB	0dfH
	DB	0ffH
	DB	0ffH
	DB	0ffH
	DB	0ffH
	DB	0ffH
	DB	0ffH
	DB	0ffH
	DB	0ffH
	DB	0ffH
	DB	0ffH
	DB	0ffH
	DB	0ffH
	DB	0ffH
	DB	0ffH
	DB	0ffH
	DB	0ffH
	DB	0ffH
	DB	0ffH
	DB	0ffH
	DB	0ffH
	DB	0ffH
	DB	0ffH
	DB	0ffH
	DB	0ffH
	DB	0ffH
	DB	0ffH
	DB	0ffH
	DB	0ffH
	DB	0ffH
	DB	0ffH
	DB	0ffH
	DB	0ffH
	DB	0ffH
	DB	057H
	DB	054H
	DB	076H
	DB	054H
	DB	056H
	DB	054H
	DB	056H
	DB	054H
	DB	056H
	DB	04cH
	DB	057H
	DB	054H
	DB	056H
	DB	04cH
	DB	056H
	DB	04cH
	DB	056H
	DB	054H
	DB	037H
	DB	04cH
	DB	056H
	DB	04cH
	DB	036H
	DB	04cH
	DB	036H
	DB	04cH
	DB	036H
	DB	04cH
	DB	036H
	DB	04cH
	DB	056H
	DB	04cH
	DB	036H
	DB	04cH
	DB	056H
	DB	04cH
	DB	036H
	DB	04cH
	DB	036H
	DB	04cH
	DB	036H
	DB	04cH
	DB	036H
	DB	04cH
	DB	036H
	DB	04cH
	DB	036H
	DB	04cH
	DB	036H
	DB	04cH
	DB	036H
	DB	04cH
	DB	036H
	DB	04cH
	DB	035H
	DB	04cH
	DB	056H
	DB	04cH
	DB	036H
	DB	04cH
	DB	036H
	DB	04cH
	DB	036H
	DB	04cH
	DB	036H
	DB	04cH
	DB	056H
	DB	04cH
	DB	056H
	DB	04cH
	DB	036H
	DB	04cH
	DB	056H
	DB	04cH
	DB	056H
	DB	04cH
	DB	056H
	DB	04cH
	DB	056H
	DB	04cH
	DB	056H
	DB	04cH
	DB	056H
	DB	04cH
	DB	056H
	DB	054H
	DB	077H
	DB	054H
	DB	076H
	DB	054H
	DB	077H
	DB	054H
	DB	077H
	DB	054H
	DB	076H
	DB	054H
	DB	096H
	DB	054H
	DB	097H
	DB	05cH
	DB	076H
	DB	05cH
	DB	077H
	DB	05cH
	DB	097H
	DB	05cH
	DB	096H
	DB	05cH
	DB	097H
	DB	05cH
	DB	097H
	DB	05cH
	DB	0b7H
	DB	05cH
	DB	0b7H
	DB	064H
	DB	0b7H
	DB	064H
	DB	0d7H
	DB	064H
	DB	0d7H
	DB	064H
	DB	018H
	DB	06dH
	DB	018H
	DB	075H
	DB	038H
	DB	075H
	DB	038H
	DB	075H
	DB	059H
	DB	07dH
	DB	078H
	DB	085H
	DB	079H
	DB	085H
	DB	059H
	DB	085H
	DB	079H
	DB	085H
	DB	058H
	DB	07dH
	DB	058H
	DB	07dH
	DB	058H
	DB	07dH
	DB	058H
	DB	07dH
	DB	059H
	DB	085H
	DB	079H
	DB	085H
	DB	059H
	DB	07dH
	DB	018H
	DB	06dH
	DB	0b7H
	DB	064H
	DB	097H
	DB	05cH
	DB	0b7H
	DB	064H
	DB	0b7H
	DB	05cH
	DB	0b7H
	DB	064H
	DB	097H
	DB	064H
	DB	0b7H
	DB	05cH
	DB	097H
	DB	05cH
	DB	0b7H
	DB	064H
	DB	0b7H
	DB	064H
	DB	097H
	DB	064H
	DB	097H
	DB	064H
	DB	0b8H
	DB	064H
	DB	0b7H
	DB	064H
	DB	0b7H
	DB	064H
	DB	0b8H
	DB	064H
	DB	0d8H
	DB	06cH
	DB	0d8H
	DB	06cH
	DB	0f8H
	DB	06cH
	DB	0f8H
	DB	06cH
	DB	0f8H
	DB	074H
	DB	0f8H
	DB	074H
	DB	0f8H
	DB	06cH
	DB	0d8H
	DB	06cH
	DB	0f8H
	DB	074H
	DB	0f8H
	DB	074H
	DB	0f8H
	DB	074H
	DB	0f8H
	DB	074H
	DB	0f8H
	DB	074H
	DB	0f7H
	DB	074H
	DB	0f7H
	DB	074H
	DB	0f8H
	DB	074H
	DB	0f7H
	DB	074H
	DB	0f7H
	DB	074H
	DB	0f8H
	DB	074H
	DB	0d8H
	DB	06cH
	DB	0d7H
	DB	06cH
	DB	0f8H
	DB	074H
	DB	0f8H
	DB	074H
	DB	0d7H
	DB	06cH
	DB	0f8H
	DB	074H
	DB	0f7H
	DB	074H
	DB	0f8H
	DB	06cH
	DB	0d7H
	DB	06cH
	DB	0d7H
	DB	074H
	DB	0f7H
	DB	074H
	DB	0d7H
	DB	06cH
	DB	0d7H
	DB	074H
	DB	0f7H
	DB	074H
	DB	0d7H
	DB	06cH
	DB	0d7H
	DB	06cH
	DB	0d7H
	DB	074H
	DB	0f7H
	DB	074H
	DB	0f8H
	DB	074H
	DB	0f8H
	DB	074H
	DB	0f8H
	DB	074H
	DB	0f8H
	DB	074H
	DB	0f8H
	DB	07cH
	DB	0f7H
	DB	074H
	DB	0f7H
	DB	074H
	DB	0f8H
	DB	07cH
	DB	0f8H
	DB	07cH
	DB	0f8H
	DB	07cH
	DB	018H
	DB	085H
	DB	018H
	DB	085H
	DB	038H
	DB	085H
	DB	038H
	DB	085H
	DB	018H
	DB	085H
	DB	038H
	DB	085H
	DB	038H
	DB	085H
	DB	038H
	DB	085H
	DB	038H
	DB	085H
	DB	038H
	DB	085H
	DB	038H
	DB	08dH
	DB	058H
	DB	08dH
	DB	059H
	DB	08dH
	DB	058H
	DB	08dH
	DB	079H
	DB	095H
	DB	058H
	DB	08dH
	DB	058H
	DB	08dH
	DB	078H
	DB	095H
	DB	078H
	DB	095H
	DB	059H
	DB	095H
	DB	079H
	DB	095H
	DB	079H
	DB	095H
	DB	078H
	DB	095H
	DB	058H
	DB	095H
	DB	078H
	DB	095H
	DB	098H
	DB	09dH
	DB	098H
	DB	095H
	DB	099H
	DB	09dH
	DB	099H
	DB	09dH
	DB	099H
	DB	09dH
	DB	099H
	DB	09dH
	DB	099H
	DB	09dH
	DB	0b9H
	DB	09dH
	DB	0b9H
	DB	09dH
	DB	0b9H
	DB	09dH
	DB	0b9H
	DB	0a5H
	DB	0b9H
	DB	0a5H
	DB	0d9H
	DB	0a5H
	DB	0d9H
	DB	0a5H
	DB	0d9H
	DB	0a5H
	DB	0daH
	DB	0a5H
	DB	0faH
	DB	0a5H
	DB	0faH
	DB	0adH
	DB	0faH
	DB	0adH
	DB	0faH
	DB	0adH
	DB	0faH
	DB	0adH
	DB	01aH
	DB	0aeH
	DB	03bH
	DB	0b6H
	DB	03bH
	DB	0b6H
	DB	05bH
	DB	0b6H
	DB	03bH
	DB	0b6H
	DB	05bH
	DB	0b6H
	DB	05bH
	DB	0b6H
	DB	05bH
	DB	0b6H
	DB	05bH
	DB	0beH
	DB	07cH
	DB	0b6H
	DB	07bH
	DB	0beH
	DB	09cH
	DB	0beH
	DB	09cH
	DB	0c6H
	DB	09cH
	DB	0c6H
	DB	0bcH
	DB	0c6H
	DB	0bcH
	DB	0c6H
	DB	0dcH
	DB	0c6H
	DB	0dcH
	DB	0ceH
	DB	0ddH
	DB	0ceH
	DB	0dcH
	DB	0ceH
	DB	0fdH
	DB	0ceH
	DB	01dH
	DB	0d7H
	DB	01dH
	DB	0d7H
	DB	01dH
	DB	0d7H
	DB	05eH
	DB	0dfH
	DB	07eH
	DB	0e7H
	DB	09fH
	DB	0efH
	DB	0dfH
	DB	0f7H
	DB	0dfH
	DB	0ffH
	DB	0dfH
	DB	0ffH
	DB	0ffH
	DB	0ffH
	DB	0ffH
	DB	0ffH
	DB	0ffH
	DB	0ffH
	DB	0ffH
	DB	0ffH
	DB	0dfH
	DB	0ffH
	DB	0dfH
	DB	0ffH
	DB	0dfH
	DB	0ffH
	DB	0ffH
	DB	0ffH
	DB	0ffH
	DB	0ffH
	DB	0ffH
	DB	0ffH
	DB	0ffH
	DB	0ffH
	DB	0ffH
	DB	0ffH
	DB	0ffH
	DB	0ffH
	DB	0ffH
	DB	0ffH
	DB	0ffH
	DB	0ffH
	DB	0ffH
	DB	0ffH
	DB	0ffH
	DB	0ffH
	DB	0ffH
	DB	0ffH
	DB	0ffH
	DB	0ffH
	DB	0ffH
	DB	0ffH
	DB	0ffH
	DB	0ffH
	DB	0ffH
	DB	0ffH
	DB	0ffH
	DB	0ffH
	DB	056H
	DB	04cH
	DB	076H
	DB	04cH
	DB	077H
	DB	054H
	DB	057H
	DB	054H
	DB	077H
	DB	04cH
	DB	056H
	DB	04cH
	DB	056H
	DB	054H
	DB	056H
	DB	04cH
	DB	056H
	DB	04cH
	DB	056H
	DB	04cH
	DB	056H
	DB	04cH
	DB	036H
	DB	04cH
	DB	036H
	DB	04cH
	DB	056H
	DB	04cH
	DB	036H
	DB	04cH
	DB	056H
	DB	04cH
	DB	036H
	DB	04cH
	DB	036H
	DB	04cH
	DB	036H
	DB	04cH
	DB	035H
	DB	04cH
	DB	036H
	DB	044H
	DB	036H
	DB	044H
	DB	035H
	DB	044H
	DB	036H
	DB	044H
	DB	035H
	DB	044H
	DB	036H
	DB	04cH
	DB	036H
	DB	04cH
	DB	036H
	DB	04cH
	DB	036H
	DB	04cH
	DB	036H
	DB	04cH
	DB	056H
	DB	04cH
	DB	036H
	DB	04cH
	DB	036H
	DB	04cH
	DB	036H
	DB	04cH
	DB	036H
	DB	04cH
	DB	056H
	DB	04cH
	DB	036H
	DB	04cH
	DB	036H
	DB	04cH
	DB	056H
	DB	054H
	DB	056H
	DB	054H
	DB	056H
	DB	054H
	DB	057H
	DB	054H
	DB	056H
	DB	04cH
	DB	056H
	DB	054H
	DB	076H
	DB	054H
	DB	077H
	DB	054H
	DB	077H
	DB	054H
	DB	076H
	DB	054H
	DB	077H
	DB	054H
	DB	077H
	DB	054H
	DB	096H
	DB	05cH
	DB	077H
	DB	054H
	DB	077H
	DB	054H
	DB	097H
	DB	05cH
	DB	077H
	DB	05cH
	DB	096H
	DB	05cH
	DB	097H
	DB	05cH
	DB	0b7H
	DB	05cH
	DB	0b7H
	DB	05cH
	DB	0d7H
	DB	064H
	DB	0d8H
	DB	064H
	DB	0d7H
	DB	06cH
	DB	018H
	DB	06dH
	DB	038H
	DB	075H
	DB	038H
	DB	07dH
	DB	038H
	DB	07dH
	DB	058H
	DB	07dH
	DB	059H
	DB	085H
	DB	079H
	DB	07dH
	DB	078H
	DB	085H
	DB	079H
	DB	085H
	DB	079H
	DB	085H
	DB	058H
	DB	085H
	DB	059H
	DB	085H
	DB	018H
	DB	075H
	DB	0f8H
	DB	06cH
	DB	0f7H
	DB	06cH
	DB	0b7H
	DB	064H
	DB	0b7H
	DB	064H
	DB	0d8H
	DB	064H
	DB	0b8H
	DB	064H
	DB	0d8H
	DB	06cH
	DB	0d8H
	DB	064H
	DB	0d8H
	DB	06cH
	DB	0d8H
	DB	06cH
	DB	0f8H
	DB	06cH
	DB	0d8H
	DB	06cH
	DB	0d8H
	DB	06cH
	DB	0d8H
	DB	064H
	DB	0d8H
	DB	06cH
	DB	0f8H
	DB	06cH
	DB	0d8H
	DB	06cH
	DB	0b7H
	DB	064H
	DB	0d7H
	DB	064H
	DB	0b7H
	DB	06cH
	DB	0d8H
	DB	06cH
	DB	0d7H
	DB	06cH
	DB	0d7H
	DB	06cH
	DB	0d7H
	DB	06cH
	DB	0d7H
	DB	06cH
	DB	0d7H
	DB	06cH
	DB	0d7H
	DB	06cH
	DB	0d7H
	DB	06cH
	DB	0d7H
	DB	06cH
	DB	0d7H
	DB	06cH
	DB	0d7H
	DB	06cH
	DB	0d8H
	DB	06cH
	DB	0f7H
	DB	06cH
	DB	0d8H
	DB	06cH
	DB	0d7H
	DB	06cH
	DB	0d8H
	DB	06cH
	DB	0d7H
	DB	06cH
	DB	0d7H
	DB	06cH
	DB	0d7H
	DB	06cH
	DB	0d7H
	DB	06cH
	DB	0f8H
	DB	074H
	DB	0d7H
	DB	06cH
	DB	0d7H
	DB	06cH
	DB	0f8H
	DB	06cH
	DB	0d7H
	DB	074H
	DB	0d7H
	DB	06cH
	DB	0d8H
	DB	06cH
	DB	0d7H
	DB	06cH
	DB	0d8H
	DB	06cH
	DB	0d7H
	DB	06cH
	DB	0d8H
	DB	06cH
	DB	0d7H
	DB	074H
	DB	0d8H
	DB	074H
	DB	0f8H
	DB	074H
	DB	0f8H
	DB	074H
	DB	0d7H
	DB	074H
	DB	0f8H
	DB	074H
	DB	0f8H
	DB	074H
	DB	0f7H
	DB	07cH
	DB	0f8H
	DB	07cH
	DB	017H
	DB	07dH
	DB	017H
	DB	07dH
	DB	0f8H
	DB	07cH
	DB	018H
	DB	07dH
	DB	018H
	DB	07dH
	DB	018H
	DB	07dH
	DB	018H
	DB	07dH
	DB	018H
	DB	085H
	DB	018H
	DB	085H
	DB	038H
	DB	085H
	DB	038H
	DB	085H
	DB	018H
	DB	085H
	DB	038H
	DB	085H
	DB	018H
	DB	085H
	DB	018H
	DB	085H
	DB	018H
	DB	085H
	DB	038H
	DB	085H
	DB	038H
	DB	085H
	DB	038H
	DB	085H
	DB	038H
	DB	08dH
	DB	038H
	DB	085H
	DB	038H
	DB	08dH
	DB	038H
	DB	08dH
	DB	038H
	DB	08dH
	DB	059H
	DB	08dH
	DB	058H
	DB	08dH
	DB	059H
	DB	095H
	DB	078H
	DB	095H
	DB	058H
	DB	095H
	DB	079H
	DB	095H
	DB	079H
	DB	095H
	DB	079H
	DB	095H
	DB	079H
	DB	095H
	DB	098H
	DB	09dH
	DB	079H
	DB	09dH
	DB	099H
	DB	09dH
	DB	099H
	DB	09dH
	DB	099H
	DB	09dH
	DB	099H
	DB	09dH
	DB	0b9H
	DB	09dH
	DB	0b9H
	DB	0a5H
	DB	0b9H
	DB	09dH
	DB	0b9H
	DB	0a5H
	DB	0baH
	DB	0a5H
	DB	0b9H
	DB	0a5H
	DB	0daH
	DB	0a5H
	DB	0d9H
	DB	0a5H
	DB	0daH
	DB	0a5H
	DB	0faH
	DB	0adH
	DB	0faH
	DB	0a5H
	DB	01aH
	DB	0aeH
	DB	01aH
	DB	0aeH
	DB	03aH
	DB	0b6H
	DB	03aH
	DB	0b6H
	DB	03aH
	DB	0b6H
	DB	03aH
	DB	0b6H
	DB	05aH
	DB	0b6H
	DB	05bH
	DB	0b6H
	DB	05bH
	DB	0b6H
	DB	07bH
	DB	0b6H
	DB	07bH
	DB	0beH
	DB	07bH
	DB	0beH
	DB	07bH
	DB	0beH
	DB	09cH
	DB	0beH
	DB	09cH
	DB	0beH
	DB	09bH
	DB	0c6H
	DB	09cH
	DB	0c6H
	DB	0bcH
	DB	0c6H
	DB	0bcH
	DB	0c6H
	DB	0dcH
	DB	0ceH
	DB	0dcH
	DB	0ceH
	DB	0fdH
	DB	0d6H
	DB	01dH
	DB	0d7H
	DB	03dH
	DB	0dfH
	DB	03dH
	DB	0dfH
	DB	07eH
	DB	0e7H
	DB	09fH
	DB	0efH
	DB	09eH
	DB	0efH
	DB	09fH
	DB	0f7H
	DB	0bfH
	DB	0f7H
	DB	0bfH
	DB	0f7H
	DB	0dfH
	DB	0ffH
	DB	0dfH
	DB	0ffH
	DB	0dfH
	DB	0ffH
	DB	0ffH
	DB	0ffH
	DB	0dfH
	DB	0ffH
	DB	0dfH
	DB	0ffH
	DB	0dfH
	DB	0ffH
	DB	0ffH
	DB	0ffH
	DB	0ffH
	DB	0ffH
	DB	0ffH
	DB	0ffH
	DB	0dfH
	DB	0ffH
	DB	0dfH
	DB	0ffH
	DB	0ffH
	DB	0ffH
	DB	0dfH
	DB	0ffH
	DB	0ffH
	DB	0ffH
	DB	0ffH
	DB	0ffH
	DB	0ffH
	DB	0ffH
	DB	0ffH
	DB	0ffH
	DB	0ffH
	DB	0ffH
	DB	0ffH
	DB	0ffH
	DB	0ffH
	DB	0ffH
	DB	0ffH
	DB	0ffH
	DB	0ffH
	DB	0ffH
	DB	0ffH
	DB	0ffH
	DB	057H
	DB	04cH
	DB	057H
	DB	04cH
	DB	057H
	DB	054H
	DB	056H
	DB	04cH
	DB	056H
	DB	04cH
	DB	056H
	DB	04cH
	DB	056H
	DB	04cH
	DB	057H
	DB	04cH
	DB	056H
	DB	04cH
	DB	056H
	DB	04cH
	DB	057H
	DB	04cH
	DB	036H
	DB	04cH
	DB	056H
	DB	04cH
	DB	036H
	DB	04cH
	DB	056H
	DB	04cH
	DB	036H
	DB	04cH
	DB	056H
	DB	04cH
	DB	056H
	DB	04cH
	DB	036H
	DB	04cH
	DB	056H
	DB	04cH
	DB	056H
	DB	04cH
	DB	036H
	DB	04cH
	DB	036H
	DB	04cH
	DB	036H
	DB	044H
	DB	036H
	DB	044H
	DB	036H
	DB	044H
	DB	036H
	DB	04cH
	DB	036H
	DB	04cH
	DB	036H
	DB	044H
	DB	036H
	DB	04cH
	DB	036H
	DB	04cH
	DB	056H
	DB	044H
	DB	056H
	DB	04cH
	DB	036H
	DB	04cH
	DB	056H
	DB	04cH
	DB	056H
	DB	04cH
	DB	036H
	DB	04cH
	DB	056H
	DB	04cH
	DB	056H
	DB	04cH
	DB	056H
	DB	04cH
	DB	056H
	DB	04cH
	DB	057H
	DB	04cH
	DB	056H
	DB	04cH
	DB	056H
	DB	04cH
	DB	056H
	DB	054H
	DB	056H
	DB	054H
	DB	077H
	DB	054H
	DB	076H
	DB	054H
	DB	077H
	DB	054H
	DB	077H
	DB	054H
	DB	096H
	DB	054H
	DB	076H
	DB	054H
	DB	097H
	DB	05cH
	DB	097H
	DB	05cH
	DB	097H
	DB	05cH
	DB	097H
	DB	05cH
	DB	097H
	DB	05cH
	DB	097H
	DB	05cH
	DB	0b7H
	DB	064H
	DB	0b7H
	DB	064H
	DB	0d7H
	DB	064H
	DB	0d8H
	DB	064H
	DB	018H
	DB	075H
	DB	038H
	DB	075H
	DB	058H
	DB	07dH
	DB	059H
	DB	07dH
	DB	038H
	DB	07dH
	DB	079H
	DB	085H
	DB	079H
	DB	085H
	DB	079H
	DB	085H
	DB	099H
	DB	085H
	DB	079H
	DB	085H
	DB	079H
	DB	085H
	DB	079H
	DB	085H
	DB	0f8H
	DB	06cH
	DB	0d7H
	DB	064H
	DB	0d8H
	DB	064H
	DB	0d8H
	DB	064H
	DB	0d8H
	DB	064H
	DB	0b7H
	DB	064H
	DB	0b8H
	DB	064H
	DB	0d7H
	DB	064H
	DB	0d8H
	DB	064H
	DB	0d8H
	DB	064H
	DB	0d7H
	DB	064H
	DB	0d8H
	DB	064H
	DB	0f8H
	DB	06cH
	DB	0f8H
	DB	064H
	DB	0f7H
	DB	06cH
	DB	0f8H
	DB	06cH
	DB	0d8H
	DB	06cH
	DB	0d8H
	DB	064H
	DB	0f8H
	DB	06cH
	DB	0d7H
	DB	06cH
	DB	0d8H
	DB	064H
	DB	0d7H
	DB	064H
	DB	0d8H
	DB	06cH
	DB	0d8H
	DB	06cH
	DB	0d8H
	DB	06cH
	DB	0d8H
	DB	06cH
	DB	0f8H
	DB	06cH
	DB	0d8H
	DB	06cH
	DB	0f8H
	DB	06cH
	DB	0f8H
	DB	06cH
	DB	0d8H
	DB	06cH
	DB	0f8H
	DB	06cH
	DB	0f7H
	DB	06cH
	DB	0f8H
	DB	06cH
	DB	0d8H
	DB	06cH
	DB	0f8H
	DB	06cH
	DB	0f8H
	DB	06cH
	DB	0f8H
	DB	06cH
	DB	0d8H
	DB	06cH
	DB	0f8H
	DB	074H
	DB	0f8H
	DB	074H
	DB	0f8H
	DB	074H
	DB	0f8H
	DB	074H
	DB	0f8H
	DB	074H
	DB	0f8H
	DB	074H
	DB	0f7H
	DB	074H
	DB	0d8H
	DB	074H
	DB	0f8H
	DB	074H
	DB	0f8H
	DB	074H
	DB	0f8H
	DB	074H
	DB	0f8H
	DB	074H
	DB	0f8H
	DB	074H
	DB	0f8H
	DB	074H
	DB	0f8H
	DB	074H
	DB	0f7H
	DB	074H
	DB	0f7H
	DB	074H
	DB	0f8H
	DB	074H
	DB	0d7H
	DB	074H
	DB	0f7H
	DB	074H
	DB	0f8H
	DB	074H
	DB	0f8H
	DB	07cH
	DB	0f8H
	DB	074H
	DB	0f8H
	DB	074H
	DB	0f8H
	DB	074H
	DB	0f7H
	DB	074H
	DB	0f7H
	DB	074H
	DB	018H
	DB	07dH
	DB	017H
	DB	07dH
	DB	0f7H
	DB	07cH
	DB	018H
	DB	07dH
	DB	0f8H
	DB	07cH
	DB	018H
	DB	07dH
	DB	018H
	DB	07dH
	DB	018H
	DB	07dH
	DB	018H
	DB	07dH
	DB	038H
	DB	085H
	DB	038H
	DB	085H
	DB	018H
	DB	085H
	DB	038H
	DB	085H
	DB	038H
	DB	08dH
	DB	038H
	DB	08dH
	DB	038H
	DB	08dH
	DB	058H
	DB	08dH
	DB	059H
	DB	08dH
	DB	058H
	DB	08dH
	DB	058H
	DB	08dH
	DB	079H
	DB	095H
	DB	058H
	DB	095H
	DB	078H
	DB	095H
	DB	079H
	DB	095H
	DB	079H
	DB	095H
	DB	079H
	DB	09dH
	DB	098H
	DB	09dH
	DB	079H
	DB	09dH
	DB	099H
	DB	09dH
	DB	098H
	DB	09dH
	DB	099H
	DB	09dH
	DB	0b9H
	DB	09dH
	DB	0b9H
	DB	09dH
	DB	0b9H
	DB	09dH
	DB	0b9H
	DB	0a5H
	DB	0b9H
	DB	0a5H
	DB	0daH
	DB	09dH
	DB	0daH
	DB	0a5H
	DB	0d9H
	DB	0a5H
	DB	0daH
	DB	0a5H
	DB	0faH
	DB	0a5H
	DB	0d9H
	DB	0a5H
	DB	0faH
	DB	0a5H
	DB	0faH
	DB	0adH
	DB	01aH
	DB	0aeH
	DB	01aH
	DB	0aeH
	DB	03bH
	DB	0aeH
	DB	03bH
	DB	0b6H
	DB	03bH
	DB	0b6H
	DB	03bH
	DB	0aeH
	DB	03bH
	DB	0b6H
	DB	05bH
	DB	0b6H
	DB	05bH
	DB	0b6H
	DB	05bH
	DB	0b6H
	DB	05bH
	DB	0beH
	DB	07bH
	DB	0beH
	DB	07bH
	DB	0beH
	DB	07bH
	DB	0beH
	DB	09cH
	DB	0beH
	DB	09cH
	DB	0c6H
	DB	09cH
	DB	0c6H
	DB	0bcH
	DB	0c6H
	DB	0bcH
	DB	0c6H
	DB	0dcH
	DB	0ceH
	DB	0fdH
	DB	0ceH
	DB	01dH
	DB	0d7H
	DB	01dH
	DB	0d7H
	DB	05eH
	DB	0dfH
	DB	05eH
	DB	0e7H
	DB	07eH
	DB	0efH
	DB	07fH
	DB	0efH
	DB	09eH
	DB	0efH
	DB	09fH
	DB	0efH
	DB	09fH
	DB	0efH
	DB	09eH
	DB	0efH
	DB	0bfH
	DB	0f7H
	DB	0bfH
	DB	0f7H
	DB	0dfH
	DB	0ffH
	DB	0dfH
	DB	0ffH
	DB	0ffH
	DB	0ffH
	DB	0ffH
	DB	0ffH
	DB	0ffH
	DB	0ffH
	DB	0ffH
	DB	0ffH
	DB	0ffH
	DB	0ffH
	DB	0dfH
	DB	0ffH
	DB	0dfH
	DB	0ffH
	DB	0ffH
	DB	0ffH
	DB	0ffH
	DB	0ffH
	DB	0ffH
	DB	0ffH
	DB	0ffH
	DB	0ffH
	DB	0ffH
	DB	0ffH
	DB	0dfH
	DB	0ffH
	DB	0ffH
	DB	0ffH
	DB	0ffH
	DB	0ffH
	DB	0ffH
	DB	0ffH
	DB	0ffH
	DB	0ffH
	DB	0dfH
	DB	0ffH
	DB	0ffH
	DB	0ffH
	DB	0ffH
	DB	0ffH
	DB	0ffH
	DB	0ffH
	DB	076H
	DB	04cH
	DB	056H
	DB	04cH
	DB	056H
	DB	04cH
	DB	056H
	DB	04cH
	DB	056H
	DB	04cH
	DB	057H
	DB	04cH
	DB	036H
	DB	04cH
	DB	036H
	DB	04cH
	DB	036H
	DB	04cH
	DB	037H
	DB	04cH
	DB	056H
	DB	04cH
	DB	056H
	DB	04cH
	DB	036H
	DB	04cH
	DB	056H
	DB	04cH
	DB	036H
	DB	04cH
	DB	036H
	DB	044H
	DB	036H
	DB	044H
	DB	036H
	DB	044H
	DB	036H
	DB	044H
	DB	036H
	DB	04cH
	DB	036H
	DB	04cH
	DB	036H
	DB	044H
	DB	036H
	DB	04cH
	DB	036H
	DB	04cH
	DB	036H
	DB	04cH
	DB	036H
	DB	044H
	DB	036H
	DB	04cH
	DB	036H
	DB	04cH
	DB	036H
	DB	044H
	DB	036H
	DB	044H
	DB	036H
	DB	044H
	DB	036H
	DB	04cH
	DB	036H
	DB	044H
	DB	036H
	DB	04cH
	DB	056H
	DB	04cH
	DB	056H
	DB	04cH
	DB	056H
	DB	04cH
	DB	056H
	DB	04cH
	DB	056H
	DB	04cH
	DB	056H
	DB	04cH
	DB	056H
	DB	04cH
	DB	056H
	DB	054H
	DB	056H
	DB	054H
	DB	077H
	DB	054H
	DB	077H
	DB	054H
	DB	077H
	DB	054H
	DB	076H
	DB	054H
	DB	076H
	DB	054H
	DB	077H
	DB	054H
	DB	097H
	DB	05cH
	DB	077H
	DB	054H
	DB	096H
	DB	05cH
	DB	096H
	DB	05cH
	DB	097H
	DB	054H
	DB	097H
	DB	05cH
	DB	097H
	DB	05cH
	DB	097H
	DB	05cH
	DB	0b7H
	DB	05cH
	DB	0b7H
	DB	05cH
	DB	0b7H
	DB	064H
	DB	0d7H
	DB	064H
	DB	0d8H
	DB	064H
	DB	0f7H
	DB	06cH
	DB	018H
	DB	06dH
	DB	038H
	DB	075H
	DB	038H
	DB	07dH
	DB	058H
	DB	07dH
	DB	058H
	DB	07dH
	DB	079H
	DB	07dH
	DB	079H
	DB	085H
	DB	079H
	DB	085H
	DB	078H
	DB	085H
	DB	079H
	DB	07dH
	DB	038H
	DB	075H
	DB	0d8H
	DB	06cH
	DB	0b7H
	DB	064H
	DB	0d8H
	DB	064H
	DB	0b7H
	DB	064H
	DB	0b7H
	DB	064H
	DB	0b7H
	DB	064H
	DB	0d7H
	DB	064H
	DB	0d7H
	DB	064H
	DB	0b7H
	DB	064H
	DB	0b7H
	DB	064H
	DB	0b7H
	DB	064H
	DB	0b7H
	DB	064H
	DB	0b7H
	DB	064H
	DB	0d7H
	DB	064H
	DB	0d8H
	DB	06cH
	DB	0f8H
	DB	06cH
	DB	0f8H
	DB	06cH
	DB	0f7H
	DB	06cH
	DB	0f8H
	DB	06cH
	DB	0f8H
	DB	06cH
	DB	0f8H
	DB	06cH
	DB	0d7H
	DB	06cH
	DB	0d7H
	DB	06cH
	DB	0d8H
	DB	06cH
	DB	0f7H
	DB	06cH
	DB	0f8H
	DB	06cH
	DB	0f8H
	DB	06cH
	DB	0d7H
	DB	06cH
	DB	0f8H
	DB	06cH
	DB	0f8H
	DB	06cH
	DB	0f8H
	DB	074H
	DB	0f7H
	DB	06cH
	DB	0f8H
	DB	074H
	DB	0f8H
	DB	074H
	DB	0f8H
	DB	074H
	DB	0f8H
	DB	074H
	DB	0f8H
	DB	074H
	DB	0f7H
	DB	074H
	DB	0f8H
	DB	074H
	DB	0f7H
	DB	06cH
	DB	0d8H
	DB	074H
	DB	0f7H
	DB	074H
	DB	0f7H
	DB	06cH
	DB	0f8H
	DB	074H
	DB	0f8H
	DB	074H
	DB	0f8H
	DB	06cH
	DB	0f8H
	DB	074H
	DB	0f7H
	DB	074H
	DB	0f7H
	DB	074H
	DB	0f7H
	DB	074H
	DB	0d7H
	DB	074H
	DB	0d7H
	DB	074H
	DB	0d7H
	DB	06cH
	DB	0d7H
	DB	06cH
	DB	0f7H
	DB	06cH
	DB	0d8H
	DB	074H
	DB	0d8H
	DB	06cH
	DB	0d8H
	DB	074H
	DB	0d7H
	DB	074H
	DB	0f8H
	DB	074H
	DB	0f8H
	DB	074H
	DB	0d7H
	DB	074H
	DB	0f8H
	DB	074H
	DB	0f8H
	DB	074H
	DB	0f7H
	DB	074H
	DB	0f8H
	DB	07cH
	DB	018H
	DB	07dH
	DB	018H
	DB	07dH
	DB	018H
	DB	07dH
	DB	018H
	DB	07dH
	DB	018H
	DB	07dH
	DB	018H
	DB	07dH
	DB	038H
	DB	085H
	DB	018H
	DB	085H
	DB	018H
	DB	07dH
	DB	018H
	DB	085H
	DB	038H
	DB	085H
	DB	038H
	DB	085H
	DB	018H
	DB	085H
	DB	038H
	DB	085H
	DB	038H
	DB	085H
	DB	038H
	DB	085H
	DB	058H
	DB	08dH
	DB	058H
	DB	08dH
	DB	058H
	DB	08dH
	DB	058H
	DB	08dH
	DB	078H
	DB	095H
	DB	079H
	DB	095H
	DB	079H
	DB	095H
	DB	078H
	DB	095H
	DB	078H
	DB	095H
	DB	079H
	DB	095H
	DB	078H
	DB	09dH
	DB	099H
	DB	095H
	DB	099H
	DB	09dH
	DB	098H
	DB	09dH
	DB	099H
	DB	09dH
	DB	0b9H
	DB	09dH
	DB	0b9H
	DB	09dH
	DB	0b9H
	DB	0a5H
	DB	0b9H
	DB	09dH
	DB	0b9H
	DB	09dH
	DB	0d9H
	DB	0a5H
	DB	0d9H
	DB	0a5H
	DB	0daH
	DB	0a5H
	DB	0faH
	DB	0a5H
	DB	0d9H
	DB	0a5H
	DB	01aH
	DB	0aeH
	DB	0faH
	DB	0adH
	DB	01aH
	DB	0aeH
	DB	01aH
	DB	0aeH
	DB	01aH
	DB	0b6H
	DB	03bH
	DB	0b6H
	DB	03bH
	DB	0b6H
	DB	03bH
	DB	0b6H
	DB	05bH
	DB	0b6H
	DB	05bH
	DB	0b6H
	DB	05bH
	DB	0beH
	DB	05bH
	DB	0beH
	DB	05bH
	DB	0beH
	DB	05bH
	DB	0beH
	DB	05bH
	DB	0b6H
	DB	07cH
	DB	0beH
	DB	07bH
	DB	0beH
	DB	07bH
	DB	0c6H
	DB	09cH
	DB	0c6H
	DB	0bcH
	DB	0c6H
	DB	0dcH
	DB	0ceH
	DB	0dcH
	DB	0ceH
	DB	0fdH
	DB	0d6H
	DB	03dH
	DB	0dfH
	DB	03dH
	DB	0dfH
	DB	05eH
	DB	0e7H
	DB	05eH
	DB	0e7H
	DB	05eH
	DB	0e7H
	DB	05eH
	DB	0e7H
	DB	07eH
	DB	0e7H
	DB	07eH
	DB	0e7H
	DB	07eH
	DB	0e7H
	DB	09fH
	DB	0efH
	DB	09fH
	DB	0efH
	DB	0bfH
	DB	0f7H
	DB	0dfH
	DB	0f7H
	DB	0dfH
	DB	0f7H
	DB	0dfH
	DB	0ffH
	DB	0dfH
	DB	0ffH
	DB	0dfH
	DB	0ffH
	DB	0dfH
	DB	0ffH
	DB	0dfH
	DB	0f7H
	DB	0bfH
	DB	0f7H
	DB	0bfH
	DB	0f7H
	DB	0dfH
	DB	0ffH
	DB	0ffH
	DB	0ffH
	DB	0ffH
	DB	0ffH
	DB	0ffH
	DB	0ffH
	DB	0ffH
	DB	0ffH
	DB	0dfH
	DB	0ffH
	DB	0ffH
	DB	0ffH
	DB	0ffH
	DB	0ffH
	DB	0ffH
	DB	0ffH
	DB	0dfH
	DB	0ffH
	DB	0ffH
	DB	0ffH
	DB	0ffH
	DB	0ffH
	DB	0dfH
	DB	0ffH
	DB	0ffH
	DB	0ffH
	DB	0ffH
	DB	0ffH
	DB	076H
	DB	054H
	DB	076H
	DB	04cH
	DB	056H
	DB	04cH
	DB	057H
	DB	04cH
	DB	056H
	DB	04cH
	DB	056H
	DB	04cH
	DB	057H
	DB	04cH
	DB	056H
	DB	04cH
	DB	056H
	DB	04cH
	DB	036H
	DB	04cH
	DB	036H
	DB	04cH
	DB	036H
	DB	04cH
	DB	036H
	DB	04cH
	DB	036H
	DB	044H
	DB	036H
	DB	044H
	DB	056H
	DB	04cH
	DB	056H
	DB	04cH
	DB	036H
	DB	044H
	DB	056H
	DB	04cH
	DB	036H
	DB	044H
	DB	036H
	DB	044H
	DB	036H
	DB	04cH
	DB	036H
	DB	044H
	DB	036H
	DB	04cH
	DB	056H
	DB	04cH
	DB	056H
	DB	04cH
	DB	036H
	DB	04cH
	DB	056H
	DB	04cH
	DB	056H
	DB	04cH
	DB	056H
	DB	04cH
	DB	056H
	DB	04cH
	DB	056H
	DB	04cH
	DB	056H
	DB	04cH
	DB	056H
	DB	04cH
	DB	056H
	DB	04cH
	DB	056H
	DB	04cH
	DB	056H
	DB	054H
	DB	056H
	DB	04cH
	DB	056H
	DB	04cH
	DB	057H
	DB	054H
	DB	056H
	DB	054H
	DB	057H
	DB	04cH
	DB	056H
	DB	04cH
	DB	056H
	DB	04cH
	DB	057H
	DB	04cH
	DB	057H
	DB	054H
	DB	076H
	DB	054H
	DB	077H
	DB	054H
	DB	076H
	DB	054H
	DB	076H
	DB	054H
	DB	076H
	DB	054H
	DB	076H
	DB	054H
	DB	076H
	DB	054H
	DB	076H
	DB	054H
	DB	076H
	DB	054H
	DB	076H
	DB	054H
	DB	097H
	DB	05cH
	DB	097H
	DB	05cH
	DB	097H
	DB	05cH
	DB	0b7H
	DB	05cH
	DB	0b7H
	DB	05cH
	DB	0d7H
	DB	064H
	DB	0d7H
	DB	064H
	DB	0f8H
	DB	06cH
	DB	018H
	DB	075H
	DB	038H
	DB	075H
	DB	058H
	DB	07dH
	DB	038H
	DB	07dH
	DB	059H
	DB	07dH
	DB	078H
	DB	07dH
	DB	079H
	DB	085H
	DB	059H
	DB	07dH
	DB	058H
	DB	07dH
	DB	038H
	DB	075H
	DB	0f8H
	DB	06cH
	DB	0b7H
	DB	064H
	DB	0d7H
	DB	05cH
	DB	0d8H
	DB	064H
	DB	0b7H
	DB	064H
	DB	0d8H
	DB	064H
	DB	0d8H
	DB	064H
	DB	0d7H
	DB	064H
	DB	0d8H
	DB	064H
	DB	0b7H
	DB	05cH
	DB	0b8H
	DB	064H
	DB	0b7H
	DB	064H
	DB	0b7H
	DB	064H
	DB	097H
	DB	05cH
	DB	0b7H
	DB	064H
	DB	0d7H
	DB	064H
	DB	0d7H
	DB	064H
	DB	0b7H
	DB	064H
	DB	0d7H
	DB	06cH
	DB	0f8H
	DB	06cH
	DB	0f8H
	DB	06cH
	DB	0f7H
	DB	06cH
	DB	0f7H
	DB	06cH
	DB	0f8H
	DB	06cH
	DB	0f7H
	DB	06cH
	DB	0f8H
	DB	06cH
	DB	0f8H
	DB	06cH
	DB	0f8H
	DB	06cH
	DB	0f7H
	DB	074H
	DB	0f7H
	DB	074H
	DB	0f7H
	DB	074H
	DB	0f8H
	DB	074H
	DB	0f8H
	DB	06cH
	DB	0f7H
	DB	06cH
	DB	0f7H
	DB	074H
	DB	0f7H
	DB	074H
	DB	0f8H
	DB	06cH
	DB	0f8H
	DB	06cH
	DB	0f8H
	DB	074H
	DB	0d7H
	DB	06cH
	DB	0f7H
	DB	06cH
	DB	0d7H
	DB	06cH
	DB	0d7H
	DB	06cH
	DB	0d7H
	DB	06cH
	DB	0d7H
	DB	06cH
	DB	0f7H
	DB	06cH
	DB	0f8H
	DB	06cH
	DB	0f8H
	DB	074H
	DB	0f8H
	DB	074H
	DB	0f8H
	DB	06cH
	DB	0f8H
	DB	06cH
	DB	0f7H
	DB	06cH
	DB	0f8H
	DB	06cH
	DB	0f8H
	DB	074H
	DB	0d7H
	DB	06cH
	DB	0d7H
	DB	06cH
	DB	0f8H
	DB	074H
	DB	0f7H
	DB	074H
	DB	0f7H
	DB	06cH
	DB	0f7H
	DB	06cH
	DB	0d7H
	DB	074H
	DB	0f7H
	DB	074H
	DB	0f7H
	DB	074H
	DB	0f8H
	DB	07cH
	DB	018H
	DB	07dH
	DB	0f7H
	DB	074H
	DB	017H
	DB	075H
	DB	017H
	DB	075H
	DB	018H
	DB	07dH
	DB	017H
	DB	07dH
	DB	017H
	DB	07dH
	DB	018H
	DB	07dH
	DB	017H
	DB	07dH
	DB	018H
	DB	085H
	DB	038H
	DB	085H
	DB	038H
	DB	085H
	DB	038H
	DB	085H
	DB	038H
	DB	085H
	DB	038H
	DB	085H
	DB	038H
	DB	085H
	DB	058H
	DB	08dH
	DB	058H
	DB	08dH
	DB	058H
	DB	08dH
	DB	059H
	DB	08dH
	DB	059H
	DB	08dH
	DB	058H
	DB	095H
	DB	078H
	DB	095H
	DB	078H
	DB	095H
	DB	079H
	DB	095H
	DB	078H
	DB	095H
	DB	078H
	DB	095H
	DB	078H
	DB	095H
	DB	079H
	DB	095H
	DB	098H
	DB	095H
	DB	099H
	DB	09dH
	DB	098H
	DB	09dH
	DB	0b9H
	DB	09dH
	DB	099H
	DB	09dH
	DB	0b9H
	DB	09dH
	DB	0b9H
	DB	0a5H
	DB	0d9H
	DB	0a5H
	DB	0b9H
	DB	0a5H
	DB	0d9H
	DB	0a5H
	DB	0daH
	DB	0a5H
	DB	0d9H
	DB	0a5H
	DB	0daH
	DB	0a5H
	DB	0faH
	DB	0adH
	DB	0faH
	DB	0a5H
	DB	0faH
	DB	0adH
	DB	01aH
	DB	0aeH
	DB	01aH
	DB	0aeH
	DB	01aH
	DB	0b6H
	DB	01aH
	DB	0aeH
	DB	03bH
	DB	0b6H
	DB	03aH
	DB	0b6H
	DB	03aH
	DB	0b6H
	DB	03bH
	DB	0b6H
	DB	05bH
	DB	0b6H
	DB	05bH
	DB	0beH
	DB	05bH
	DB	0beH
	DB	05bH
	DB	0beH
	DB	07bH
	DB	0beH
	DB	07cH
	DB	0beH
	DB	09cH
	DB	0c6H
	DB	0bcH
	DB	0ceH
	DB	0dcH
	DB	0ceH
	DB	0ddH
	DB	0ceH
	DB	0fdH
	DB	0d6H
	DB	01dH
	DB	0d7H
	DB	01dH
	DB	0dfH
	DB	01eH
	DB	0dfH
	DB	03dH
	DB	0dfH
	DB	03dH
	DB	0dfH
	DB	01dH
	DB	0dfH
	DB	03eH
	DB	0dfH
	DB	05eH
	DB	0dfH
	DB	05eH
	DB	0dfH
	DB	07eH
	DB	0e7H
	DB	07fH
	DB	0e7H
	DB	09fH
	DB	0efH
	DB	09fH
	DB	0f7H
	DB	0bfH
	DB	0f7H
	DB	0bfH
	DB	0f7H
	DB	0bfH
	DB	0f7H
	DB	0bfH
	DB	0f7H
	DB	0beH
	DB	0efH
	DB	09eH
	DB	0efH
	DB	07eH
	DB	0e7H
	DB	09eH
	DB	0efH
	DB	09fH
	DB	0efH
	DB	0bfH
	DB	0f7H
	DB	0dfH
	DB	0f7H
	DB	0ffH
	DB	0ffH
	DB	0ffH
	DB	0ffH
	DB	0ffH
	DB	0ffH
	DB	0ffH
	DB	0ffH
	DB	0ffH
	DB	0ffH
	DB	0ffH
	DB	0ffH
	DB	0dfH
	DB	0ffH
	DB	0ffH
	DB	0ffH
	DB	0ffH
	DB	0ffH
	DB	0ffH
	DB	0ffH
	DB	0ffH
	DB	0ffH
	DB	0ffH
	DB	0ffH
	DB	0ffH
	DB	0ffH
	DB	0ffH
	DB	0ffH
	DB	077H
	DB	04cH
	DB	057H
	DB	04cH
	DB	076H
	DB	04cH
	DB	077H
	DB	054H
	DB	056H
	DB	04cH
	DB	056H
	DB	04cH
	DB	057H
	DB	04cH
	DB	056H
	DB	04cH
	DB	056H
	DB	04cH
	DB	056H
	DB	04cH
	DB	056H
	DB	04cH
	DB	057H
	DB	04cH
	DB	057H
	DB	04cH
	DB	056H
	DB	04cH
	DB	056H
	DB	04cH
	DB	057H
	DB	04cH
	DB	056H
	DB	04cH
	DB	056H
	DB	04cH
	DB	056H
	DB	04cH
	DB	036H
	DB	04cH
	DB	056H
	DB	04cH
	DB	056H
	DB	04cH
	DB	036H
	DB	04cH
	DB	056H
	DB	04cH
	DB	036H
	DB	044H
	DB	036H
	DB	044H
	DB	056H
	DB	04cH
	DB	036H
	DB	04cH
	DB	036H
	DB	04cH
	DB	036H
	DB	04cH
	DB	036H
	DB	044H
	DB	036H
	DB	04cH
	DB	056H
	DB	04cH
	DB	036H
	DB	04cH
	DB	036H
	DB	04cH
	DB	036H
	DB	04cH
	DB	036H
	DB	04cH
	DB	056H
	DB	04cH
	DB	056H
	DB	04cH
	DB	036H
	DB	04cH
	DB	057H
	DB	04cH
	DB	056H
	DB	04cH
	DB	056H
	DB	04cH
	DB	056H
	DB	04cH
	DB	056H
	DB	04cH
	DB	056H
	DB	04cH
	DB	056H
	DB	054H
	DB	077H
	DB	054H
	DB	076H
	DB	054H
	DB	077H
	DB	054H
	DB	077H
	DB	054H
	DB	077H
	DB	054H
	DB	077H
	DB	054H
	DB	077H
	DB	054H
	DB	077H
	DB	054H
	DB	097H
	DB	05cH
	DB	096H
	DB	054H
	DB	097H
	DB	05cH
	DB	097H
	DB	05cH
	DB	097H
	DB	05cH
	DB	0b7H
	DB	05cH
	DB	0b7H
	DB	064H
	DB	0f7H
	DB	06cH
	DB	0f8H
	DB	06cH
	DB	018H
	DB	06dH
	DB	038H
	DB	075H
	DB	038H
	DB	075H
	DB	038H
	DB	075H
	DB	059H
	DB	07dH
	DB	078H
	DB	085H
	DB	079H
	DB	07dH
	DB	059H
	DB	085H
	DB	058H
	DB	07dH
	DB	058H
	DB	07dH
	DB	038H
	DB	075H
	DB	018H
	DB	075H
	DB	0f8H
	DB	06cH
	DB	0d7H
	DB	064H
	DB	0d8H
	DB	064H
	DB	0d8H
	DB	064H
	DB	0d7H
	DB	064H
	DB	0d7H
	DB	064H
	DB	0d8H
	DB	064H
	DB	0d8H
	DB	064H
	DB	0d7H
	DB	064H
	DB	0d8H
	DB	064H
	DB	0d8H
	DB	064H
	DB	0b7H
	DB	064H
	DB	0b8H
	DB	064H
	DB	0b7H
	DB	064H
	DB	0d7H
	DB	064H
	DB	0d8H
	DB	064H
	DB	0d7H
	DB	064H
	DB	0d7H
	DB	06cH
	DB	0f8H
	DB	06cH
	DB	0f8H
	DB	06cH
	DB	0f8H
	DB	074H
	DB	0f8H
	DB	06cH
	DB	0f8H
	DB	06cH
	DB	0d7H
	DB	06cH
	DB	0d7H
	DB	06cH
	DB	0f7H
	DB	06cH
	DB	0f8H
	DB	06cH
	DB	0d7H
	DB	064H
	DB	0f8H
	DB	06cH
	DB	0f8H
	DB	06cH
	DB	0f8H
	DB	06cH
	DB	0f8H
	DB	06cH
	DB	0f7H
	DB	06cH
	DB	0f8H
	DB	06cH
	DB	0f8H
	DB	074H
	DB	017H
	DB	075H
	DB	0f7H
	DB	06cH
	DB	0f8H
	DB	074H
	DB	0f8H
	DB	06cH
	DB	0d8H
	DB	06cH
	DB	0d8H
	DB	06cH
	DB	0d7H
	DB	06cH
	DB	0f8H
	DB	06cH
	DB	0f8H
	DB	074H
	DB	0f8H
	DB	074H
	DB	0f7H
	DB	06cH
	DB	0f8H
	DB	074H
	DB	0f8H
	DB	074H
	DB	0f8H
	DB	074H
	DB	0f8H
	DB	074H
	DB	0f7H
	DB	074H
	DB	0d7H
	DB	074H
	DB	0f7H
	DB	074H
	DB	0d7H
	DB	074H
	DB	0d7H
	DB	074H
	DB	0f8H
	DB	074H
	DB	0f8H
	DB	074H
	DB	0d7H
	DB	074H
	DB	0d8H
	DB	074H
	DB	0d7H
	DB	074H
	DB	0f8H
	DB	074H
	DB	0f7H
	DB	074H
	DB	0f8H
	DB	074H
	DB	0f8H
	DB	074H
	DB	0f7H
	DB	07cH
	DB	0f8H
	DB	074H
	DB	0f7H
	DB	07cH
	DB	0f8H
	DB	07cH
	DB	018H
	DB	07dH
	DB	018H
	DB	07dH
	DB	018H
	DB	07dH
	DB	017H
	DB	07dH
	DB	038H
	DB	07dH
	DB	038H
	DB	085H
	DB	038H
	DB	085H
	DB	058H
	DB	085H
	DB	058H
	DB	08dH
	DB	058H
	DB	08dH
	DB	058H
	DB	08dH
	DB	038H
	DB	08dH
	DB	058H
	DB	08dH
	DB	058H
	DB	08dH
	DB	079H
	DB	095H
	DB	079H
	DB	095H
	DB	079H
	DB	095H
	DB	078H
	DB	095H
	DB	079H
	DB	095H
	DB	079H
	DB	09dH
	DB	079H
	DB	09dH
	DB	099H
	DB	09dH
	DB	099H
	DB	09dH
	DB	099H
	DB	09dH
	DB	099H
	DB	09dH
	DB	099H
	DB	09dH
	DB	0b9H
	DB	09dH
	DB	0d9H
	DB	0a5H
	DB	0b9H
	DB	0a5H
	DB	0b9H
	DB	0a5H
	DB	0b9H
	DB	0a5H
	DB	0daH
	DB	0a5H
	DB	0baH
	DB	0a5H
	DB	0d9H
	DB	0a5H
	DB	0daH
	DB	0a5H
	DB	0daH
	DB	0a5H
	DB	0faH
	DB	0adH
	DB	0faH
	DB	0adH
	DB	01aH
	DB	0aeH
	DB	01aH
	DB	0aeH
	DB	03bH
	DB	0b6H
	DB	03bH
	DB	0b6H
	DB	03bH
	DB	0b6H
	DB	03bH
	DB	0b6H
	DB	05bH
	DB	0b6H
	DB	05bH
	DB	0beH
	DB	05bH
	DB	0beH
	DB	05bH
	DB	0beH
	DB	07bH
	DB	0beH
	DB	07bH
	DB	0beH
	DB	07cH
	DB	0beH
	DB	07bH
	DB	0c6H
	DB	09cH
	DB	0c6H
	DB	0bcH
	DB	0ceH
	DB	0dcH
	DB	0ceH
	DB	0dcH
	DB	0ceH
	DB	0fcH
	DB	0d6H
	DB	0fdH
	DB	0d6H
	DB	0fdH
	DB	0d6H
	DB	0fdH
	DB	0d6H
	DB	01dH
	DB	0d7H
	DB	0fdH
	DB	0d6H
	DB	01dH
	DB	0d7H
	DB	01dH
	DB	0d7H
	DB	03eH
	DB	0dfH
	DB	05eH
	DB	0dfH
	DB	05eH
	DB	0e7H
	DB	07eH
	DB	0e7H
	DB	07eH
	DB	0efH
	DB	09fH
	DB	0efH
	DB	09eH
	DB	0efH
	DB	07eH
	DB	0efH
	DB	09eH
	DB	0e7H
	DB	09eH
	DB	0efH
	DB	07eH
	DB	0e7H
	DB	07eH
	DB	0e7H
	DB	05eH
	DB	0e7H
	DB	05eH
	DB	0dfH
	DB	07eH
	DB	0e7H
	DB	09fH
	DB	0f7H
	DB	0dfH
	DB	0ffH
	DB	0ffH
	DB	0ffH
	DB	0ffH
	DB	0ffH
	DB	0dfH
	DB	0ffH
	DB	0bfH
	DB	0f7H
	DB	0dfH
	DB	0ffH
	DB	0ffH
	DB	0ffH
	DB	0dfH
	DB	0ffH
	DB	0ffH
	DB	0ffH
	DB	0ffH
	DB	0ffH
	DB	0ffH
	DB	0ffH
	DB	0ffH
	DB	0ffH
	DB	0dfH
	DB	0ffH
	DB	0ffH
	DB	0ffH
	DB	0ffH
	DB	0ffH
	DB	0ffH
	DB	0ffH
	DB	056H
	DB	04cH
	DB	057H
	DB	054H
	DB	076H
	DB	054H
	DB	056H
	DB	04cH
	DB	056H
	DB	04cH
	DB	056H
	DB	04cH
	DB	076H
	DB	04cH
	DB	056H
	DB	04cH
	DB	057H
	DB	04cH
	DB	056H
	DB	04cH
	DB	056H
	DB	04cH
	DB	036H
	DB	04cH
	DB	036H
	DB	04cH
	DB	056H
	DB	04cH
	DB	036H
	DB	04cH
	DB	056H
	DB	044H
	DB	036H
	DB	044H
	DB	036H
	DB	044H
	DB	056H
	DB	04cH
	DB	036H
	DB	04cH
	DB	036H
	DB	044H
	DB	036H
	DB	044H
	DB	036H
	DB	04cH
	DB	036H
	DB	044H
	DB	036H
	DB	044H
	DB	036H
	DB	04cH
	DB	036H
	DB	044H
	DB	035H
	DB	044H
	DB	036H
	DB	04cH
	DB	036H
	DB	044H
	DB	036H
	DB	044H
	DB	036H
	DB	04cH
	DB	036H
	DB	044H
	DB	036H
	DB	044H
	DB	036H
	DB	04cH
	DB	036H
	DB	04cH
	DB	036H
	DB	04cH
	DB	056H
	DB	04cH
	DB	056H
	DB	04cH
	DB	056H
	DB	04cH
	DB	056H
	DB	04cH
	DB	056H
	DB	04cH
	DB	056H
	DB	04cH
	DB	056H
	DB	054H
	DB	056H
	DB	054H
	DB	057H
	DB	04cH
	DB	057H
	DB	054H
	DB	056H
	DB	054H
	DB	076H
	DB	054H
	DB	076H
	DB	054H
	DB	056H
	DB	054H
	DB	076H
	DB	054H
	DB	076H
	DB	054H
	DB	077H
	DB	054H
	DB	096H
	DB	054H
	DB	096H
	DB	054H
	DB	077H
	DB	054H
	DB	096H
	DB	054H
	DB	097H
	DB	05cH
	DB	097H
	DB	05cH
	DB	097H
	DB	05cH
	DB	0b7H
	DB	05cH
	DB	0d8H
	DB	064H
	DB	0f7H
	DB	064H
	DB	018H
	DB	06dH
	DB	018H
	DB	06dH
	DB	018H
	DB	075H
	DB	038H
	DB	075H
	DB	058H
	DB	07dH
	DB	059H
	DB	07dH
	DB	079H
	DB	07dH
	DB	058H
	DB	07dH
	DB	059H
	DB	07dH
	DB	039H
	DB	07dH
	DB	038H
	DB	075H
	DB	018H
	DB	075H
	DB	018H
	DB	06dH
	DB	0f8H
	DB	06cH
	DB	0f8H
	DB	06cH
	DB	0f8H
	DB	06cH
	DB	0d7H
	DB	064H
	DB	0d8H
	DB	064H
	DB	0d7H
	DB	064H
	DB	0d7H
	DB	064H
	DB	0f8H
	DB	064H
	DB	0d8H
	DB	06cH
	DB	0d8H
	DB	064H
	DB	0d7H
	DB	064H
	DB	0d8H
	DB	064H
	DB	0f8H
	DB	06cH
	DB	0f8H
	DB	06cH
	DB	0d8H
	DB	06cH
	DB	0f8H
	DB	06cH
	DB	018H
	DB	075H
	DB	018H
	DB	075H
	DB	018H
	DB	075H
	DB	018H
	DB	075H
	DB	018H
	DB	075H
	DB	0f8H
	DB	06cH
	DB	0f8H
	DB	06cH
	DB	0f8H
	DB	06cH
	DB	0f8H
	DB	06cH
	DB	0f7H
	DB	06cH
	DB	0d8H
	DB	06cH
	DB	0d7H
	DB	06cH
	DB	0d7H
	DB	06cH
	DB	0f8H
	DB	06cH
	DB	0f8H
	DB	074H
	DB	0f8H
	DB	06cH
	DB	0f8H
	DB	06cH
	DB	0f7H
	DB	074H
	DB	0f8H
	DB	074H
	DB	0f8H
	DB	074H
	DB	0f8H
	DB	074H
	DB	0f8H
	DB	074H
	DB	0f8H
	DB	06cH
	DB	0d7H
	DB	06cH
	DB	0f8H
	DB	06cH
	DB	0d8H
	DB	06cH
	DB	0f7H
	DB	074H
	DB	0f8H
	DB	074H
	DB	0f8H
	DB	06cH
	DB	0f7H
	DB	074H
	DB	0f7H
	DB	074H
	DB	0f7H
	DB	074H
	DB	0f8H
	DB	074H
	DB	0f8H
	DB	074H
	DB	0f8H
	DB	074H
	DB	0f8H
	DB	074H
	DB	0d8H
	DB	06cH
	DB	0f8H
	DB	06cH
	DB	0d7H
	DB	06cH
	DB	0f8H
	DB	074H
	DB	0f8H
	DB	074H
	DB	0d8H
	DB	074H
	DB	0f8H
	DB	074H
	DB	0d7H
	DB	074H
	DB	0f7H
	DB	074H
	DB	0f8H
	DB	074H
	DB	0f8H
	DB	07cH
	DB	0f8H
	DB	07cH
	DB	018H
	DB	07dH
	DB	0f8H
	DB	07cH
	DB	0f8H
	DB	07cH
	DB	018H
	DB	07dH
	DB	018H
	DB	07dH
	DB	017H
	DB	085H
	DB	018H
	DB	085H
	DB	038H
	DB	085H
	DB	037H
	DB	085H
	DB	038H
	DB	085H
	DB	038H
	DB	08dH
	DB	038H
	DB	08dH
	DB	038H
	DB	085H
	DB	058H
	DB	08dH
	DB	058H
	DB	08dH
	DB	058H
	DB	08dH
	DB	058H
	DB	08dH
	DB	078H
	DB	095H
	DB	079H
	DB	095H
	DB	079H
	DB	095H
	DB	079H
	DB	095H
	DB	098H
	DB	095H
	DB	079H
	DB	09dH
	DB	099H
	DB	09dH
	DB	099H
	DB	09dH
	DB	099H
	DB	09dH
	DB	099H
	DB	09dH
	DB	0b9H
	DB	09dH
	DB	0b9H
	DB	09dH
	DB	0b9H
	DB	0a5H
	DB	0b9H
	DB	09dH
	DB	0b9H
	DB	0a5H
	DB	0d9H
	DB	0a5H
	DB	0daH
	DB	09dH
	DB	0d9H
	DB	0a5H
	DB	0daH
	DB	0a5H
	DB	0d9H
	DB	0a5H
	DB	0faH
	DB	0adH
	DB	0faH
	DB	0adH
	DB	0faH
	DB	0adH
	DB	0faH
	DB	0adH
	DB	01aH
	DB	0aeH
	DB	01aH
	DB	0b6H
	DB	01aH
	DB	0b6H
	DB	03aH
	DB	0b6H
	DB	03aH
	DB	0b6H
	DB	03aH
	DB	0b6H
	DB	03bH
	DB	0b6H
	DB	03bH
	DB	0beH
	DB	05bH
	DB	0beH
	DB	05bH
	DB	0beH
	DB	07bH
	DB	0beH
	DB	07bH
	DB	0beH
	DB	07cH
	DB	0c6H
	DB	0bcH
	DB	0c6H
	DB	0dcH
	DB	0ceH
	DB	0dcH
	DB	0ceH
	DB	0dcH
	DB	0ceH
	DB	0fdH
	DB	0d6H
	DB	0ddH
	DB	0d6H
	DB	0dcH
	DB	0ceH
	DB	0dcH
	DB	0ceH
	DB	0fdH
	DB	0ceH
	DB	0fdH
	DB	0ceH
	DB	0fdH
	DB	0d6H
	DB	01dH
	DB	0d7H
	DB	03eH
	DB	0dfH
	DB	05eH
	DB	0dfH
	DB	05eH
	DB	0dfH
	DB	05eH
	DB	0e7H
	DB	07eH
	DB	0e7H
	DB	07eH
	DB	0e7H
	DB	05eH
	DB	0e7H
	DB	07eH
	DB	0e7H
	DB	07eH
	DB	0e7H
	DB	05eH
	DB	0e7H
	DB	05eH
	DB	0dfH
	DB	03eH
	DB	0dfH
	DB	03eH
	DB	0dfH
	DB	05eH
	DB	0dfH
	DB	05eH
	DB	0e7H
	DB	07eH
	DB	0efH
	DB	0dfH
	DB	0f7H
	DB	0dfH
	DB	0ffH
	DB	0dfH
	DB	0ffH
	DB	0dfH
	DB	0f7H
	DB	09fH
	DB	0efH
	DB	0bfH
	DB	0efH
	DB	0bfH
	DB	0f7H
	DB	0dfH
	DB	0ffH
	DB	0ffH
	DB	0ffH
	DB	0ffH
	DB	0ffH
	DB	0dfH
	DB	0ffH
	DB	0dfH
	DB	0ffH
	DB	0dfH
	DB	0f7H
	DB	0bfH
	DB	0f7H
	DB	0dfH
	DB	0f7H
	DB	0dfH
	DB	0f7H
	DB	0dfH
	DB	0ffH
	DB	076H
	DB	04cH
	DB	056H
	DB	04cH
	DB	057H
	DB	04cH
	DB	057H
	DB	04cH
	DB	056H
	DB	04cH
	DB	057H
	DB	04cH
	DB	057H
	DB	04cH
	DB	056H
	DB	04cH
	DB	056H
	DB	04cH
	DB	036H
	DB	04cH
	DB	036H
	DB	04cH
	DB	036H
	DB	044H
	DB	036H
	DB	044H
	DB	036H
	DB	044H
	DB	036H
	DB	044H
	DB	036H
	DB	04cH
	DB	056H
	DB	044H
	DB	056H
	DB	04cH
	DB	056H
	DB	044H
	DB	056H
	DB	044H
	DB	036H
	DB	044H
	DB	056H
	DB	04cH
	DB	056H
	DB	044H
	DB	036H
	DB	04cH
	DB	036H
	DB	04cH
	DB	056H
	DB	044H
	DB	036H
	DB	044H
	DB	056H
	DB	04cH
	DB	036H
	DB	04cH
	DB	056H
	DB	04cH
	DB	056H
	DB	044H
	DB	056H
	DB	04cH
	DB	056H
	DB	04cH
	DB	056H
	DB	04cH
	DB	056H
	DB	04cH
	DB	056H
	DB	04cH
	DB	057H
	DB	04cH
	DB	056H
	DB	04cH
	DB	036H
	DB	04cH
	DB	036H
	DB	04cH
	DB	056H
	DB	04cH
	DB	057H
	DB	04cH
	DB	056H
	DB	04cH
	DB	057H
	DB	04cH
	DB	056H
	DB	04cH
	DB	056H
	DB	054H
	DB	077H
	DB	04cH
	DB	076H
	DB	054H
	DB	057H
	DB	054H
	DB	077H
	DB	054H
	DB	077H
	DB	054H
	DB	057H
	DB	054H
	DB	077H
	DB	054H
	DB	077H
	DB	054H
	DB	076H
	DB	054H
	DB	077H
	DB	054H
	DB	077H
	DB	054H
	DB	077H
	DB	05cH
	DB	0b7H
	DB	05cH
	DB	0b7H
	DB	05cH
	DB	0b7H
	DB	05cH
	DB	0b7H
	DB	064H
	DB	0b8H
	DB	05cH
	DB	0d7H
	DB	064H
	DB	0d8H
	DB	06cH
	DB	0f8H
	DB	06cH
	DB	018H
	DB	06dH
	DB	018H
	DB	075H
	DB	038H
	DB	075H
	DB	038H
	DB	075H
	DB	038H
	DB	07dH
	DB	038H
	DB	075H
	DB	038H
	DB	07dH
	DB	038H
	DB	07dH
	DB	059H
	DB	07dH
	DB	038H
	DB	075H
	DB	018H
	DB	075H
	DB	0d7H
	DB	064H
	DB	0f8H
	DB	064H
	DB	0f7H
	DB	06cH
	DB	0f8H
	DB	06cH
	DB	0f8H
	DB	06cH
	DB	0f8H
	DB	06cH
	DB	0f8H
	DB	06cH
	DB	018H
	DB	06dH
	DB	018H
	DB	06dH
	DB	018H
	DB	075H
	DB	018H
	DB	06dH
	DB	018H
	DB	075H
	DB	018H
	DB	06dH
	DB	0f8H
	DB	06cH
	DB	018H
	DB	06dH
	DB	018H
	DB	075H
	DB	018H
	DB	075H
	DB	018H
	DB	06dH
	DB	018H
	DB	075H
	DB	018H
	DB	075H
	DB	018H
	DB	075H
	DB	018H
	DB	075H
	DB	0f7H
	DB	074H
	DB	0f8H
	DB	06cH
	DB	0f8H
	DB	06cH
	DB	0d8H
	DB	06cH
	DB	0f8H
	DB	06cH
	DB	0f8H
	DB	06cH
	DB	0f7H
	DB	06cH
	DB	0d7H
	DB	06cH
	DB	0f7H
	DB	06cH
	DB	0f8H
	DB	074H
	DB	0f8H
	DB	074H
	DB	0f8H
	DB	06cH
	DB	0f8H
	DB	074H
	DB	0f8H
	DB	074H
	DB	017H
	DB	075H
	DB	0f7H
	DB	074H
	DB	0f7H
	DB	06cH
	DB	0d7H
	DB	06cH
	DB	0f8H
	DB	074H
	DB	0f8H
	DB	06cH
	DB	0d7H
	DB	06cH
	DB	0d7H
	DB	06cH
	DB	0f8H
	DB	074H
	DB	0f8H
	DB	074H
	DB	0d8H
	DB	06cH
	DB	0d8H
	DB	074H
	DB	0f7H
	DB	06cH
	DB	0f8H
	DB	074H
	DB	0f8H
	DB	06cH
	DB	0f8H
	DB	074H
	DB	0f7H
	DB	074H
	DB	0f8H
	DB	074H
	DB	0f8H
	DB	074H
	DB	0f8H
	DB	074H
	DB	0f7H
	DB	074H
	DB	0f7H
	DB	074H
	DB	0f8H
	DB	074H
	DB	0f8H
	DB	074H
	DB	0f8H
	DB	074H
	DB	0f8H
	DB	074H
	DB	0f7H
	DB	074H
	DB	018H
	DB	07dH
	DB	018H
	DB	07dH
	DB	018H
	DB	07dH
	DB	017H
	DB	075H
	DB	018H
	DB	07dH
	DB	018H
	DB	07dH
	DB	017H
	DB	07dH
	DB	018H
	DB	085H
	DB	018H
	DB	085H
	DB	038H
	DB	085H
	DB	018H
	DB	085H
	DB	038H
	DB	08dH
	DB	038H
	DB	085H
	DB	058H
	DB	08dH
	DB	059H
	DB	08dH
	DB	038H
	DB	08dH
	DB	059H
	DB	08dH
	DB	059H
	DB	08dH
	DB	058H
	DB	08dH
	DB	059H
	DB	095H
	DB	099H
	DB	095H
	DB	079H
	DB	095H
	DB	078H
	DB	095H
	DB	099H
	DB	09dH
	DB	099H
	DB	095H
	DB	099H
	DB	09dH
	DB	099H
	DB	09dH
	DB	0b9H
	DB	09dH
	DB	099H
	DB	09dH
	DB	099H
	DB	09dH
	DB	0b9H
	DB	0a5H
	DB	0b9H
	DB	0a5H
	DB	0baH
	DB	09dH
	DB	0baH
	DB	0a5H
	DB	0d9H
	DB	0a5H
	DB	0daH
	DB	0a5H
	DB	0daH
	DB	0a5H
	DB	0daH
	DB	0adH
	DB	0f9H
	DB	0adH
	DB	0faH
	DB	0adH
	DB	01aH
	DB	0aeH
	DB	01aH
	DB	0b6H
	DB	01aH
	DB	0b6H
	DB	03bH
	DB	0b6H
	DB	01aH
	DB	0b6H
	DB	03aH
	DB	0b6H
	DB	03bH
	DB	0b6H
	DB	03bH
	DB	0beH
	DB	05aH
	DB	0beH
	DB	07bH
	DB	0beH
	DB	07bH
	DB	0beH
	DB	07bH
	DB	0c6H
	DB	09cH
	DB	0c6H
	DB	09cH
	DB	0c6H
	DB	0bcH
	DB	0ceH
	DB	0bcH
	DB	0ceH
	DB	0bcH
	DB	0c6H
	DB	09cH
	DB	0ceH
	DB	0bcH
	DB	0ceH
	DB	0bcH
	DB	0c6H
	DB	0bcH
	DB	0ceH
	DB	0dcH
	DB	0ceH
	DB	0dcH
	DB	0ceH
	DB	0dcH
	DB	0ceH
	DB	01dH
	DB	0d7H
	DB	03dH
	DB	0dfH
	DB	05eH
	DB	0dfH
	DB	03dH
	DB	0dfH
	DB	01dH
	DB	0dfH
	DB	05eH
	DB	0dfH
	DB	05eH
	DB	0e7H
	DB	05eH
	DB	0dfH
	DB	03dH
	DB	0dfH
	DB	03eH
	DB	0dfH
	DB	03dH
	DB	0dfH
	DB	01dH
	DB	0d7H
	DB	0fdH
	DB	0d6H
	DB	0fdH
	DB	0d6H
	DB	01dH
	DB	0d7H
	DB	01dH
	DB	0dfH
	DB	03eH
	DB	0dfH
	DB	07eH
	DB	0efH
	DB	09fH
	DB	0efH
	DB	0bfH
	DB	0f7H
	DB	0bfH
	DB	0f7H
	DB	09fH
	DB	0efH
	DB	07eH
	DB	0e7H
	DB	07eH
	DB	0e7H
	DB	09eH
	DB	0efH
	DB	0bfH
	DB	0f7H
	DB	0dfH
	DB	0ffH
	DB	0ffH
	DB	0ffH
	DB	0ffH
	DB	0ffH
	DB	0dfH
	DB	0f7H
	DB	09fH
	DB	0efH
	DB	09fH
	DB	0efH
	DB	09fH
	DB	0efH
	DB	09eH
	DB	0efH
	DB	0bfH
	DB	0f7H
	DB	0bfH
	DB	0f7H
	DB	076H
	DB	04cH
	DB	077H
	DB	04cH
	DB	076H
	DB	04cH
	DB	076H
	DB	04cH
	DB	057H
	DB	04cH
	DB	056H
	DB	04cH
	DB	057H
	DB	04cH
	DB	036H
	DB	044H
	DB	056H
	DB	04cH
	DB	037H
	DB	044H
	DB	057H
	DB	044H
	DB	057H
	DB	04cH
	DB	036H
	DB	044H
	DB	037H
	DB	044H
	DB	036H
	DB	04cH
	DB	036H
	DB	04cH
	DB	057H
	DB	04cH
	DB	056H
	DB	04cH
	DB	036H
	DB	04cH
	DB	056H
	DB	04cH
	DB	056H
	DB	04cH
	DB	056H
	DB	04cH
	DB	056H
	DB	044H
	DB	056H
	DB	044H
	DB	056H
	DB	04cH
	DB	036H
	DB	04cH
	DB	056H
	DB	04cH
	DB	056H
	DB	04cH
	DB	056H
	DB	044H
	DB	056H
	DB	04cH
	DB	056H
	DB	04cH
	DB	056H
	DB	04cH
	DB	056H
	DB	04cH
	DB	056H
	DB	04cH
	DB	057H
	DB	04cH
	DB	056H
	DB	04cH
	DB	056H
	DB	04cH
	DB	057H
	DB	04cH
	DB	057H
	DB	04cH
	DB	057H
	DB	04cH
	DB	056H
	DB	04cH
	DB	057H
	DB	04cH
	DB	077H
	DB	054H
	DB	077H
	DB	054H
	DB	076H
	DB	04cH
	DB	057H
	DB	04cH
	DB	076H
	DB	054H
	DB	077H
	DB	04cH
	DB	077H
	DB	04cH
	DB	077H
	DB	054H
	DB	076H
	DB	054H
	DB	077H
	DB	054H
	DB	076H
	DB	054H
	DB	076H
	DB	054H
	DB	077H
	DB	054H
	DB	077H
	DB	054H
	DB	077H
	DB	054H
	DB	097H
	DB	054H
	DB	077H
	DB	054H
	DB	097H
	DB	05cH
	DB	097H
	DB	05cH
	DB	0b7H
	DB	05cH
	DB	0b7H
	DB	05cH
	DB	0d7H
	DB	064H
	DB	0d8H
	DB	064H
	DB	0d7H
	DB	06cH
	DB	0f8H
	DB	06cH
	DB	0f8H
	DB	06cH
	DB	018H
	DB	075H
	DB	018H
	DB	075H
	DB	038H
	DB	075H
	DB	038H
	DB	075H
	DB	038H
	DB	075H
	DB	058H
	DB	075H
	DB	038H
	DB	075H
	DB	039H
	DB	07dH
	DB	038H
	DB	075H
	DB	018H
	DB	06dH
	DB	0d8H
	DB	06cH
	DB	0f8H
	DB	064H
	DB	0f8H
	DB	06cH
	DB	0f8H
	DB	06cH
	DB	018H
	DB	075H
	DB	018H
	DB	075H
	DB	038H
	DB	075H
	DB	018H
	DB	075H
	DB	018H
	DB	075H
	DB	0f8H
	DB	074H
	DB	018H
	DB	06dH
	DB	0f8H
	DB	074H
	DB	018H
	DB	075H
	DB	018H
	DB	075H
	DB	018H
	DB	075H
	DB	018H
	DB	075H
	DB	018H
	DB	075H
	DB	018H
	DB	075H
	DB	018H
	DB	075H
	DB	018H
	DB	075H
	DB	0f8H
	DB	074H
	DB	0f8H
	DB	06cH
	DB	0f7H
	DB	06cH
	DB	0f8H
	DB	06cH
	DB	0f8H
	DB	06cH
	DB	0d7H
	DB	06cH
	DB	0f8H
	DB	06cH
	DB	0f8H
	DB	06cH
	DB	0d8H
	DB	06cH
	DB	0d7H
	DB	06cH
	DB	0f8H
	DB	06cH
	DB	0f7H
	DB	06cH
	DB	0f8H
	DB	074H
	DB	018H
	DB	075H
	DB	018H
	DB	07dH
	DB	018H
	DB	075H
	DB	018H
	DB	075H
	DB	0f8H
	DB	074H
	DB	0f8H
	DB	074H
	DB	0f7H
	DB	06cH
	DB	0f8H
	DB	074H
	DB	0f8H
	DB	06cH
	DB	0f7H
	DB	074H
	DB	0f7H
	DB	06cH
	DB	0f8H
	DB	074H
	DB	0f8H
	DB	06cH
	DB	0d7H
	DB	06cH
	DB	0d7H
	DB	074H
	DB	0f8H
	DB	074H
	DB	0f7H
	DB	074H
	DB	0f8H
	DB	074H
	DB	018H
	DB	075H
	DB	0f8H
	DB	07cH
	DB	018H
	DB	075H
	DB	018H
	DB	075H
	DB	0f7H
	DB	074H
	DB	0f8H
	DB	074H
	DB	0f8H
	DB	074H
	DB	018H
	DB	075H
	DB	018H
	DB	075H
	DB	0f8H
	DB	07cH
	DB	018H
	DB	07dH
	DB	018H
	DB	07dH
	DB	018H
	DB	07dH
	DB	018H
	DB	07dH
	DB	018H
	DB	07dH
	DB	017H
	DB	07dH
	DB	018H
	DB	07dH
	DB	018H
	DB	07dH
	DB	018H
	DB	07dH
	DB	018H
	DB	085H
	DB	038H
	DB	085H
	DB	038H
	DB	085H
	DB	038H
	DB	085H
	DB	038H
	DB	085H
	DB	058H
	DB	08dH
	DB	059H
	DB	08dH
	DB	058H
	DB	08dH
	DB	079H
	DB	08dH
	DB	078H
	DB	08dH
	DB	079H
	DB	095H
	DB	078H
	DB	095H
	DB	078H
	DB	095H
	DB	079H
	DB	095H
	DB	079H
	DB	095H
	DB	079H
	DB	095H
	DB	099H
	DB	095H
	DB	098H
	DB	09dH
	DB	099H
	DB	09dH
	DB	099H
	DB	09dH
	DB	0b9H
	DB	09dH
	DB	0b9H
	DB	09dH
	DB	0b9H
	DB	0a5H
	DB	0b9H
	DB	0a5H
	DB	0baH
	DB	0a5H
	DB	0d9H
	DB	0a5H
	DB	0daH
	DB	0a5H
	DB	0d9H
	DB	0a5H
	DB	0faH
	DB	0adH
	DB	0faH
	DB	0adH
	DB	0faH
	DB	0adH
	DB	01aH
	DB	0aeH
	DB	01aH
	DB	0b6H
	DB	01aH
	DB	0b6H
	DB	01aH
	DB	0b6H
	DB	03bH
	DB	0b6H
	DB	03bH
	DB	0b6H
	DB	03bH
	DB	0b6H
	DB	05bH
	DB	0beH
	DB	05bH
	DB	0beH
	DB	07bH
	DB	0beH
	DB	07bH
	DB	0c6H
	DB	07bH
	DB	0c6H
	DB	09cH
	DB	0c6H
	DB	09cH
	DB	0c6H
	DB	09cH
	DB	0c6H
	DB	09bH
	DB	0c6H
	DB	09cH
	DB	0c6H
	DB	09cH
	DB	0c6H
	DB	0bcH
	DB	0ceH
	DB	09cH
	DB	0c6H
	DB	0bcH
	DB	0c6H
	DB	0bcH
	DB	0c6H
	DB	0ddH
	DB	0ceH
	DB	0fdH
	DB	0d6H
	DB	01dH
	DB	0d7H
	DB	01dH
	DB	0d7H
	DB	0fdH
	DB	0d6H
	DB	01dH
	DB	0d7H
	DB	01dH
	DB	0d7H
	DB	03eH
	DB	0dfH
	DB	03dH
	DB	0dfH
	DB	01dH
	DB	0d7H
	DB	01dH
	DB	0dfH
	DB	01dH
	DB	0dfH
	DB	0fdH
	DB	0d6H
	DB	0fdH
	DB	0ceH
	DB	0fdH
	DB	0d6H
	DB	0fdH
	DB	0d6H
	DB	0fdH
	DB	0d6H
	DB	01dH
	DB	0d7H
	DB	01dH
	DB	0dfH
	DB	05eH
	DB	0e7H
	DB	09eH
	DB	0efH
	DB	0bfH
	DB	0efH
	DB	09fH
	DB	0efH
	DB	07eH
	DB	0e7H
	DB	07eH
	DB	0e7H
	DB	07eH
	DB	0e7H
	DB	05eH
	DB	0e7H
	DB	09eH
	DB	0efH
	DB	0bfH
	DB	0f7H
	DB	0dfH
	DB	0ffH
	DB	0dfH
	DB	0ffH
	DB	0bfH
	DB	0f7H
	DB	07eH
	DB	0e7H
	DB	07eH
	DB	0e7H
	DB	07eH
	DB	0efH
	DB	07eH
	DB	0efH
	DB	07eH
	DB	0efH
	DB	09eH
	DB	0efH
	DB	09fH
	DB	0efH
	DB	057H
	DB	04cH
	DB	056H
	DB	04cH
	DB	056H
	DB	04cH
	DB	057H
	DB	04cH
	DB	057H
	DB	04cH
	DB	056H
	DB	04cH
	DB	056H
	DB	04cH
	DB	057H
	DB	04cH
	DB	056H
	DB	04cH
	DB	057H
	DB	04cH
	DB	036H
	DB	04cH
	DB	056H
	DB	04cH
	DB	057H
	DB	04cH
	DB	056H
	DB	04cH
	DB	057H
	DB	044H
	DB	036H
	DB	044H
	DB	036H
	DB	044H
	DB	037H
	DB	044H
	DB	056H
	DB	044H
	DB	056H
	DB	04cH
	DB	036H
	DB	04cH
	DB	036H
	DB	044H
	DB	036H
	DB	04cH
	DB	056H
	DB	044H
	DB	036H
	DB	044H
	DB	036H
	DB	04cH
	DB	057H
	DB	04cH
	DB	036H
	DB	044H
	DB	057H
	DB	044H
	DB	057H
	DB	04cH
	DB	056H
	DB	04cH
	DB	056H
	DB	04cH
	DB	057H
	DB	04cH
	DB	056H
	DB	04cH
	DB	056H
	DB	04cH
	DB	057H
	DB	04cH
	DB	056H
	DB	04cH
	DB	076H
	DB	04cH
	DB	077H
	DB	054H
	DB	076H
	DB	04cH
	DB	056H
	DB	054H
	DB	056H
	DB	04cH
	DB	056H
	DB	04cH
	DB	056H
	DB	054H
	DB	057H
	DB	054H
	DB	056H
	DB	04cH
	DB	057H
	DB	054H
	DB	056H
	DB	054H
	DB	076H
	DB	054H
	DB	076H
	DB	054H
	DB	076H
	DB	04cH
	DB	077H
	DB	054H
	DB	077H
	DB	054H
	DB	076H
	DB	054H
	DB	077H
	DB	054H
	DB	097H
	DB	054H
	DB	076H
	DB	054H
	DB	077H
	DB	054H
	DB	097H
	DB	054H
	DB	097H
	DB	05cH
	DB	097H
	DB	05cH
	DB	0b7H
	DB	05cH
	DB	0b7H
	DB	05cH
	DB	0b7H
	DB	064H
	DB	0d7H
	DB	064H
	DB	0d8H
	DB	064H
	DB	0f8H
	DB	064H
	DB	0f8H
	DB	06cH
	DB	0f8H
	DB	06cH
	DB	018H
	DB	06dH
	DB	038H
	DB	075H
	DB	018H
	DB	075H
	DB	038H
	DB	075H
	DB	059H
	DB	07dH
	DB	038H
	DB	07dH
	DB	038H
	DB	075H
	DB	038H
	DB	075H
	DB	0f8H
	DB	06cH
	DB	0f8H
	DB	06cH
	DB	018H
	DB	06dH
	DB	018H
	DB	06dH
	DB	018H
	DB	075H
	DB	018H
	DB	075H
	DB	018H
	DB	075H
	DB	039H
	DB	075H
	DB	018H
	DB	075H
	DB	018H
	DB	075H
	DB	018H
	DB	075H
	DB	0f8H
	DB	074H
	DB	018H
	DB	075H
	DB	018H
	DB	075H
	DB	018H
	DB	075H
	DB	018H
	DB	075H
	DB	018H
	DB	075H
	DB	038H
	DB	075H
	DB	039H
	DB	07dH
	DB	038H
	DB	075H
	DB	018H
	DB	075H
	DB	018H
	DB	075H
	DB	018H
	DB	06dH
	DB	018H
	DB	075H
	DB	0f8H
	DB	06cH
	DB	0f7H
	DB	06cH
	DB	0f7H
	DB	06cH
	DB	0f8H
	DB	06cH
	DB	0d8H
	DB	06cH
	DB	0d7H
	DB	06cH
	DB	0d8H
	DB	06cH
	DB	0d7H
	DB	06cH
	DB	018H
	DB	075H
	DB	018H
	DB	075H
	DB	018H
	DB	075H
	DB	018H
	DB	075H
	DB	018H
	DB	075H
	DB	018H
	DB	075H
	DB	018H
	DB	075H
	DB	0f7H
	DB	06cH
	DB	0f8H
	DB	074H
	DB	0f8H
	DB	074H
	DB	0f8H
	DB	074H
	DB	0f8H
	DB	074H
	DB	0f7H
	DB	074H
	DB	0f8H
	DB	06cH
	DB	0f8H
	DB	074H
	DB	0f8H
	DB	074H
	DB	0f7H
	DB	06cH
	DB	0f8H
	DB	06cH
	DB	0f7H
	DB	074H
	DB	0f8H
	DB	074H
	DB	018H
	DB	075H
	DB	038H
	DB	07dH
	DB	018H
	DB	07dH
	DB	018H
	DB	07dH
	DB	0f8H
	DB	074H
	DB	0f8H
	DB	074H
	DB	0f8H
	DB	074H
	DB	0f7H
	DB	074H
	DB	0f7H
	DB	07cH
	DB	018H
	DB	07dH
	DB	018H
	DB	07dH
	DB	038H
	DB	07dH
	DB	038H
	DB	07dH
	DB	018H
	DB	07dH
	DB	038H
	DB	085H
	DB	018H
	DB	07dH
	DB	038H
	DB	085H
	DB	038H
	DB	085H
	DB	038H
	DB	085H
	DB	038H
	DB	085H
	DB	038H
	DB	085H
	DB	038H
	DB	085H
	DB	058H
	DB	085H
	DB	058H
	DB	085H
	DB	059H
	DB	08dH
	DB	058H
	DB	08dH
	DB	079H
	DB	08dH
	DB	058H
	DB	08dH
	DB	079H
	DB	095H
	DB	079H
	DB	095H
	DB	079H
	DB	08dH
	DB	078H
	DB	095H
	DB	079H
	DB	095H
	DB	079H
	DB	095H
	DB	099H
	DB	095H
	DB	099H
	DB	09dH
	DB	099H
	DB	09dH
	DB	0b9H
	DB	09dH
	DB	0b9H
	DB	09dH
	DB	0b9H
	DB	0a5H
	DB	0b9H
	DB	09dH
	DB	0d9H
	DB	0a5H
	DB	0baH
	DB	0a5H
	DB	0d9H
	DB	0a5H
	DB	0daH
	DB	0a5H
	DB	0daH
	DB	0a5H
	DB	0faH
	DB	0adH
	DB	0faH
	DB	0adH
	DB	0faH
	DB	0adH
	DB	01aH
	DB	0aeH
	DB	03aH
	DB	0b6H
	DB	01aH
	DB	0b6H
	DB	03bH
	DB	0b6H
	DB	03bH
	DB	0b6H
	DB	03aH
	DB	0b6H
	DB	05bH
	DB	0beH
	DB	05bH
	DB	0beH
	DB	07bH
	DB	0beH
	DB	07bH
	DB	0beH
	DB	07bH
	DB	0c6H
	DB	09cH
	DB	0c6H
	DB	09cH
	DB	0c6H
	DB	09bH
	DB	0c6H
	DB	09cH
	DB	0c6H
	DB	09bH
	DB	0c6H
	DB	07bH
	DB	0c6H
	DB	07bH
	DB	0c6H
	DB	0bcH
	DB	0c6H
	DB	09cH
	DB	0c6H
	DB	0bcH
	DB	0c6H
	DB	0dcH
	DB	0ceH
	DB	0ddH
	DB	0d6H
	DB	0fdH
	DB	0d6H
	DB	01dH
	DB	0d7H
	DB	0fdH
	DB	0d6H
	DB	0fdH
	DB	0d6H
	DB	0fdH
	DB	0d6H
	DB	01dH
	DB	0d7H
	DB	01dH
	DB	0d7H
	DB	0fdH
	DB	0d6H
	DB	01dH
	DB	0d7H
	DB	01dH
	DB	0d7H
	DB	0fdH
	DB	0d6H
	DB	0dcH
	DB	0ceH
	DB	0dcH
	DB	0ceH
	DB	0dcH
	DB	0ceH
	DB	0dcH
	DB	0ceH
	DB	0ddH
	DB	0ceH
	DB	0fdH
	DB	0d6H
	DB	01dH
	DB	0d7H
	DB	03dH
	DB	0dfH
	DB	05eH
	DB	0e7H
	DB	07eH
	DB	0e7H
	DB	09eH
	DB	0efH
	DB	07eH
	DB	0e7H
	DB	05eH
	DB	0e7H
	DB	05eH
	DB	0e7H
	DB	05eH
	DB	0dfH
	DB	05eH
	DB	0e7H
	DB	07fH
	DB	0efH
	DB	0bfH
	DB	0efH
	DB	0dfH
	DB	0f7H
	DB	0bfH
	DB	0f7H
	DB	07eH
	DB	0efH
	DB	07eH
	DB	0e7H
	DB	07eH
	DB	0e7H
	DB	07eH
	DB	0e7H
	DB	05eH
	DB	0e7H
	DB	07eH
	DB	0e7H
	DB	07eH
	DB	0e7H
	DB	07eH
	DB	0e7H
	DB	077H
	DB	054H
	DB	077H
	DB	04cH
	DB	077H
	DB	04cH
	DB	076H
	DB	04cH
	DB	056H
	DB	04cH
	DB	057H
	DB	04cH
	DB	057H
	DB	044H
	DB	056H
	DB	04cH
	DB	056H
	DB	04cH
	DB	057H
	DB	044H
	DB	056H
	DB	04cH
	DB	056H
	DB	04cH
	DB	056H
	DB	04cH
	DB	056H
	DB	04cH
	DB	037H
	DB	04cH
	DB	056H
	DB	044H
	DB	056H
	DB	044H
	DB	057H
	DB	04cH
	DB	057H
	DB	04cH
	DB	036H
	DB	044H
	DB	037H
	DB	044H
	DB	036H
	DB	04cH
	DB	056H
	DB	04cH
	DB	036H
	DB	04cH
	DB	056H
	DB	04cH
	DB	057H
	DB	04cH
	DB	056H
	DB	04cH
	DB	056H
	DB	04cH
	DB	056H
	DB	04cH
	DB	056H
	DB	04cH
	DB	057H
	DB	04cH
	DB	056H
	DB	04cH
	DB	057H
	DB	04cH
	DB	077H
	DB	04cH
	DB	057H
	DB	04cH
	DB	077H
	DB	04cH
	DB	077H
	DB	04cH
	DB	057H
	DB	054H
	DB	077H
	DB	054H
	DB	077H
	DB	054H
	DB	077H
	DB	054H
	DB	077H
	DB	054H
	DB	077H
	DB	054H
	DB	077H
	DB	04cH
	DB	077H
	DB	054H
	DB	077H
	DB	054H
	DB	076H
	DB	04cH
	DB	077H
	DB	054H
	DB	077H
	DB	04cH
	DB	077H
	DB	054H
	DB	077H
	DB	054H
	DB	097H
	DB	04cH
	DB	097H
	DB	054H
	DB	097H
	DB	054H
	DB	097H
	DB	054H
	DB	077H
	DB	054H
	DB	097H
	DB	054H
	DB	097H
	DB	054H
	DB	097H
	DB	05cH
	DB	097H
	DB	054H
	DB	097H
	DB	054H
	DB	097H
	DB	054H
	DB	0b7H
	DB	05cH
	DB	0b7H
	DB	05cH
	DB	0b7H
	DB	05cH
	DB	0b7H
	DB	064H
	DB	0d7H
	DB	064H
	DB	0d8H
	DB	064H
	DB	0f8H
	DB	06cH
	DB	0f8H
	DB	06cH
	DB	018H
	DB	06dH
	DB	038H
	DB	075H
	DB	039H
	DB	075H
	DB	059H
	DB	075H
	DB	059H
	DB	075H
	DB	038H
	DB	075H
	DB	039H
	DB	075H
	DB	038H
	DB	075H
	DB	018H
	DB	075H
	DB	018H
	DB	075H
	DB	038H
	DB	075H
	DB	038H
	DB	075H
	DB	038H
	DB	075H
	DB	018H
	DB	075H
	DB	018H
	DB	06dH
	DB	038H
	DB	075H
	DB	018H
	DB	075H
	DB	038H
	DB	06dH
	DB	018H
	DB	075H
	DB	018H
	DB	075H
	DB	018H
	DB	075H
	DB	038H
	DB	075H
	DB	038H
	DB	075H
	DB	038H
	DB	075H
	DB	039H
	DB	07dH
	DB	038H
	DB	075H
	DB	018H
	DB	075H
	DB	018H
	DB	075H
	DB	0f8H
	DB	06cH
	DB	0f8H
	DB	06cH
	DB	0f8H
	DB	06cH
	DB	0f8H
	DB	06cH
	DB	0f8H
	DB	06cH
	DB	018H
	DB	06dH
	DB	0f8H
	DB	06cH
	DB	0f8H
	DB	06cH
	DB	0f8H
	DB	06cH
	DB	0f8H
	DB	06cH
	DB	0f8H
	DB	074H
	DB	018H
	DB	075H
	DB	038H
	DB	075H
	DB	018H
	DB	075H
	DB	0f8H
	DB	074H
	DB	017H
	DB	06dH
	DB	0f8H
	DB	074H
	DB	0f8H
	DB	074H
	DB	0d7H
	DB	06cH
	DB	0f8H
	DB	06cH
	DB	0f7H
	DB	06cH
	DB	0f8H
	DB	074H
	DB	0f8H
	DB	074H
	DB	018H
	DB	075H
	DB	0f7H
	DB	074H
	DB	0f8H
	DB	074H
	DB	0f8H
	DB	074H
	DB	0f8H
	DB	074H
	DB	0f8H
	DB	074H
	DB	018H
	DB	075H
	DB	018H
	DB	075H
	DB	017H
	DB	075H
	DB	018H
	DB	07dH
	DB	018H
	DB	07dH
	DB	017H
	DB	07dH
	DB	018H
	DB	07dH
	DB	018H
	DB	07dH
	DB	018H
	DB	07dH
	DB	018H
	DB	07dH
	DB	018H
	DB	07dH
	DB	018H
	DB	075H
	DB	017H
	DB	07dH
	DB	018H
	DB	07dH
	DB	018H
	DB	07dH
	DB	038H
	DB	07dH
	DB	038H
	DB	07dH
	DB	038H
	DB	07dH
	DB	018H
	DB	07dH
	DB	038H
	DB	085H
	DB	038H
	DB	085H
	DB	058H
	DB	085H
	DB	038H
	DB	085H
	DB	038H
	DB	085H
	DB	059H
	DB	08dH
	DB	059H
	DB	08dH
	DB	059H
	DB	08dH
	DB	059H
	DB	08dH
	DB	058H
	DB	08dH
	DB	059H
	DB	08dH
	DB	078H
	DB	08dH
	DB	079H
	DB	08dH
	DB	079H
	DB	08dH
	DB	079H
	DB	08dH
	DB	079H
	DB	095H
	DB	079H
	DB	095H
	DB	099H
	DB	095H
	DB	099H
	DB	09dH
	DB	099H
	DB	09dH
	DB	099H
	DB	09dH
	DB	0b9H
	DB	09dH
	DB	0b9H
	DB	09dH
	DB	0baH
	DB	09dH
	DB	0baH
	DB	09dH
	DB	0d9H
	DB	09dH
	DB	0daH
	DB	0a5H
	DB	0daH
	DB	0a5H
	DB	0faH
	DB	0adH
	DB	01aH
	DB	0aeH
	DB	01aH
	DB	0aeH
	DB	01aH
	DB	0aeH
	DB	03aH
	DB	0b6H
	DB	01bH
	DB	0b6H
	DB	03bH
	DB	0b6H
	DB	03bH
	DB	0b6H
	DB	05bH
	DB	0beH
	DB	05bH
	DB	0beH
	DB	07bH
	DB	0beH
	DB	07bH
	DB	0c6H
	DB	07bH
	DB	0c6H
	DB	07cH
	DB	0c6H
	DB	07bH
	DB	0beH
	DB	07bH
	DB	0beH
	DB	07bH
	DB	0beH
	DB	07bH
	DB	0c6H
	DB	07bH
	DB	0c6H
	DB	07bH
	DB	0beH
	DB	07bH
	DB	0c6H
	DB	09cH
	DB	0c6H
	DB	09bH
	DB	0c6H
	DB	09cH
	DB	0c6H
	DB	0dcH
	DB	0ceH
	DB	0dcH
	DB	0ceH
	DB	0ddH
	DB	0ceH
	DB	0dcH
	DB	0ceH
	DB	0dcH
	DB	0ceH
	DB	0fdH
	DB	0ceH
	DB	0fdH
	DB	0d6H
	DB	0fdH
	DB	0ceH
	DB	0dcH
	DB	0ceH
	DB	0fdH
	DB	0ceH
	DB	0fdH
	DB	0ceH
	DB	0dcH
	DB	0ceH
	DB	0bcH
	DB	0ceH
	DB	0bcH
	DB	0ceH
	DB	0bcH
	DB	0c6H
	DB	0bcH
	DB	0c6H
	DB	0dcH
	DB	0ceH
	DB	0bcH
	DB	0ceH
	DB	0dcH
	DB	0ceH
	DB	0fdH
	DB	0d6H
	DB	01dH
	DB	0dfH
	DB	05eH
	DB	0e7H
	DB	07eH
	DB	0e7H
	DB	05eH
	DB	0e7H
	DB	05eH
	DB	0dfH
	DB	03eH
	DB	0dfH
	DB	01eH
	DB	0d7H
	DB	01dH
	DB	0d7H
	DB	03eH
	DB	0dfH
	DB	05eH
	DB	0dfH
	DB	07eH
	DB	0e7H
	DB	0bfH
	DB	0f7H
	DB	09eH
	DB	0efH
	DB	07eH
	DB	0e7H
	DB	05eH
	DB	0e7H
	DB	03eH
	DB	0dfH
	DB	03eH
	DB	0dfH
	DB	03dH
	DB	0dfH
	DB	03eH
	DB	0dfH
	DB	03eH
	DB	0dfH
	DB	05eH
	DB	0e7H
	DB	05eH
	DB	0e7H
	DB	076H
	DB	04cH
	DB	077H
	DB	04cH
	DB	077H
	DB	04cH
	DB	056H
	DB	04cH
	DB	057H
	DB	04cH
	DB	056H
	DB	04cH
	DB	077H
	DB	04cH
	DB	057H
	DB	044H
	DB	056H
	DB	04cH
	DB	056H
	DB	044H
	DB	057H
	DB	04cH
	DB	057H
	DB	044H
	DB	057H
	DB	04cH
	DB	056H
	DB	044H
	DB	036H
	DB	044H
	DB	057H
	DB	04cH
	DB	056H
	DB	04cH
	DB	056H
	DB	044H
	DB	056H
	DB	04cH
	DB	056H
	DB	044H
	DB	056H
	DB	04cH
	DB	057H
	DB	04cH
	DB	056H
	DB	044H
	DB	057H
	DB	04cH
	DB	056H
	DB	044H
	DB	056H
	DB	04cH
	DB	057H
	DB	04cH
	DB	056H
	DB	04cH
	DB	056H
	DB	04cH
	DB	057H
	DB	04cH
	DB	076H
	DB	04cH
	DB	077H
	DB	04cH
	DB	077H
	DB	04cH
	DB	076H
	DB	054H
	DB	077H
	DB	054H
	DB	097H
	DB	054H
	DB	076H
	DB	054H
	DB	077H
	DB	054H
	DB	077H
	DB	054H
	DB	097H
	DB	04cH
	DB	077H
	DB	054H
	DB	097H
	DB	054H
	DB	097H
	DB	054H
	DB	077H
	DB	054H
	DB	076H
	DB	054H
	DB	076H
	DB	054H
	DB	077H
	DB	054H
	DB	077H
	DB	054H
	DB	077H
	DB	04cH
	DB	077H
	DB	054H
	DB	076H
	DB	054H
	DB	077H
	DB	054H
	DB	097H
	DB	054H
	DB	077H
	DB	054H
	DB	077H
	DB	054H
	DB	097H
	DB	054H
	DB	097H
	DB	054H
	DB	097H
	DB	054H
	DB	097H
	DB	054H
	DB	097H
	DB	05cH
	DB	097H
	DB	05cH
	DB	097H
	DB	054H
	DB	097H
	DB	054H
	DB	097H
	DB	05cH
	DB	0b7H
	DB	05cH
	DB	0b7H
	DB	05cH
	DB	0b7H
	DB	064H
	DB	0d8H
	DB	064H
	DB	0f8H
	DB	064H
	DB	0f8H
	DB	06cH
	DB	018H
	DB	06dH
	DB	018H
	DB	06dH
	DB	038H
	DB	075H
	DB	059H
	DB	07dH
	DB	038H
	DB	075H
	DB	038H
	DB	075H
	DB	038H
	DB	075H
	DB	018H
	DB	075H
	DB	018H
	DB	06dH
	DB	018H
	DB	075H
	DB	018H
	DB	075H
	DB	039H
	DB	075H
	DB	039H
	DB	075H
	DB	038H
	DB	075H
	DB	038H
	DB	075H
	DB	018H
	DB	075H
	DB	038H
	DB	075H
	DB	038H
	DB	075H
	DB	039H
	DB	075H
	DB	038H
	DB	075H
	DB	018H
	DB	075H
	DB	038H
	DB	075H
	DB	039H
	DB	075H
	DB	039H
	DB	075H
	DB	018H
	DB	075H
	DB	018H
	DB	06dH
	DB	0f8H
	DB	06cH
	DB	0f8H
	DB	06cH
	DB	0f8H
	DB	064H
	DB	0d7H
	DB	06cH
	DB	0f8H
	DB	06cH
	DB	018H
	DB	06dH
	DB	018H
	DB	075H
	DB	018H
	DB	075H
	DB	018H
	DB	075H
	DB	018H
	DB	075H
	DB	038H
	DB	075H
	DB	038H
	DB	075H
	DB	038H
	DB	075H
	DB	038H
	DB	075H
	DB	018H
	DB	075H
	DB	018H
	DB	075H
	DB	0f7H
	DB	074H
	DB	0f7H
	DB	06cH
	DB	018H
	DB	075H
	DB	018H
	DB	075H
	DB	0f8H
	DB	074H
	DB	018H
	DB	075H
	DB	0f8H
	DB	074H
	DB	017H
	DB	075H
	DB	018H
	DB	075H
	DB	018H
	DB	075H
	DB	018H
	DB	075H
	DB	018H
	DB	075H
	DB	018H
	DB	075H
	DB	017H
	DB	075H
	DB	018H
	DB	07dH
	DB	018H
	DB	07dH
	DB	018H
	DB	07dH
	DB	018H
	DB	075H
	DB	018H
	DB	07dH
	DB	018H
	DB	07dH
	DB	018H
	DB	07dH
	DB	018H
	DB	07dH
	DB	038H
	DB	07dH
	DB	018H
	DB	07dH
	DB	018H
	DB	07dH
	DB	018H
	DB	07dH
	DB	018H
	DB	075H
	DB	0f8H
	DB	07cH
	DB	0f8H
	DB	07cH
	DB	017H
	DB	07dH
	DB	018H
	DB	07dH
	DB	018H
	DB	07dH
	DB	038H
	DB	07dH
	DB	038H
	DB	085H
	DB	038H
	DB	085H
	DB	038H
	DB	07dH
	DB	038H
	DB	085H
	DB	059H
	DB	085H
	DB	059H
	DB	08dH
	DB	058H
	DB	085H
	DB	059H
	DB	08dH
	DB	058H
	DB	08dH
	DB	079H
	DB	08dH
	DB	079H
	DB	08dH
	DB	058H
	DB	08dH
	DB	079H
	DB	08dH
	DB	079H
	DB	095H
	DB	079H
	DB	095H
	DB	078H
	DB	095H
	DB	079H
	DB	095H
	DB	099H
	DB	095H
	DB	099H
	DB	095H
	DB	0b9H
	DB	09dH
	DB	0b9H
	DB	09dH
	DB	0b9H
	DB	09dH
	DB	0baH
	DB	09dH
	DB	0baH
	DB	09dH
	DB	0d9H
	DB	0a5H
	DB	0daH
	DB	0a5H
	DB	0daH
	DB	0a5H
	DB	0faH
	DB	0a5H
	DB	0faH
	DB	0adH
	DB	0faH
	DB	0adH
	DB	01aH
	DB	0aeH
	DB	01aH
	DB	0aeH
	DB	01aH
	DB	0b6H
	DB	03bH
	DB	0b6H
	DB	03bH
	DB	0b6H
	DB	03bH
	DB	0b6H
	DB	05bH
	DB	0beH
	DB	05bH
	DB	0beH
	DB	05bH
	DB	0beH
	DB	07bH
	DB	0beH
	DB	07bH
	DB	0beH
	DB	05bH
	DB	0beH
	DB	05bH
	DB	0beH
	DB	05bH
	DB	0beH
	DB	05bH
	DB	0beH
	DB	05bH
	DB	0beH
	DB	07bH
	DB	0beH
	DB	07bH
	DB	0beH
	DB	07bH
	DB	0beH
	DB	07cH
	DB	0c6H
	DB	09cH
	DB	0c6H
	DB	0dcH
	DB	0ceH
	DB	0dcH
	DB	0ceH
	DB	0bcH
	DB	0ceH
	DB	0bcH
	DB	0c6H
	DB	0bcH
	DB	0c6H
	DB	0dcH
	DB	0ceH
	DB	0fdH
	DB	0ceH
	DB	0dcH
	DB	0ceH
	DB	0dcH
	DB	0ceH
	DB	0dcH
	DB	0ceH
	DB	0ddH
	DB	0ceH
	DB	0bcH
	DB	0ceH
	DB	0bcH
	DB	0ceH
	DB	09cH
	DB	0c6H
	DB	09cH
	DB	0c6H
	DB	0bcH
	DB	0c6H
	DB	0bcH
	DB	0c6H
	DB	0bcH
	DB	0ceH
	DB	0bcH
	DB	0ceH
	DB	0dcH
	DB	0ceH
	DB	0fdH
	DB	0d6H
	DB	01dH
	DB	0d7H
	DB	03dH
	DB	0dfH
	DB	05eH
	DB	0e7H
	DB	03eH
	DB	0dfH
	DB	03dH
	DB	0dfH
	DB	03eH
	DB	0dfH
	DB	01eH
	DB	0d7H
	DB	01dH
	DB	0d7H
	DB	03dH
	DB	0d7H
	DB	03eH
	DB	0dfH
	DB	07eH
	DB	0e7H
	DB	07eH
	DB	0efH
	DB	09fH
	DB	0efH
	DB	09eH
	DB	0efH
	DB	05eH
	DB	0e7H
	DB	01dH
	DB	0dfH
	DB	01dH
	DB	0dfH
	DB	01dH
	DB	0d7H
	DB	01dH
	DB	0d7H
	DB	01dH
	DB	0d7H
	DB	03eH
	DB	0dfH
	DB	05eH
	DB	0dfH
	DB	03dH
	DB	0dfH
	DB	077H
	DB	04cH
	DB	076H
	DB	04cH
	DB	056H
	DB	04cH
	DB	076H
	DB	04cH
	DB	077H
	DB	04cH
	DB	077H
	DB	04cH
	DB	076H
	DB	04cH
	DB	057H
	DB	04cH
	DB	057H
	DB	04cH
	DB	056H
	DB	04cH
	DB	057H
	DB	04cH
	DB	057H
	DB	04cH
	DB	056H
	DB	044H
	DB	057H
	DB	04cH
	DB	056H
	DB	04cH
	DB	056H
	DB	04cH
	DB	057H
	DB	04cH
	DB	056H
	DB	044H
	DB	056H
	DB	044H
	DB	077H
	DB	04cH
	DB	056H
	DB	04cH
	DB	056H
	DB	04cH
	DB	057H
	DB	04cH
	DB	056H
	DB	04cH
	DB	057H
	DB	04cH
	DB	056H
	DB	04cH
	DB	077H
	DB	04cH
	DB	077H
	DB	04cH
	DB	077H
	DB	04cH
	DB	076H
	DB	04cH
	DB	077H
	DB	04cH
	DB	077H
	DB	054H
	DB	097H
	DB	054H
	DB	097H
	DB	054H
	DB	097H
	DB	054H
	DB	097H
	DB	054H
	DB	097H
	DB	054H
	DB	097H
	DB	054H
	DB	097H
	DB	054H
	DB	077H
	DB	054H
	DB	096H
	DB	054H
	DB	096H
	DB	054H
	DB	097H
	DB	054H
	DB	097H
	DB	04cH
	DB	077H
	DB	054H
	DB	097H
	DB	054H
	DB	077H
	DB	054H
	DB	077H
	DB	054H
	DB	096H
	DB	054H
	DB	097H
	DB	054H
	DB	097H
	DB	054H
	DB	096H
	DB	054H
	DB	077H
	DB	054H
	DB	096H
	DB	054H
	DB	077H
	DB	054H
	DB	096H
	DB	054H
	DB	077H
	DB	054H
	DB	096H
	DB	054H
	DB	097H
	DB	054H
	DB	097H
	DB	054H
	DB	097H
	DB	05cH
	DB	0b7H
	DB	05cH
	DB	0b7H
	DB	05cH
	DB	097H
	DB	05cH
	DB	0b7H
	DB	05cH
	DB	0b7H
	DB	05cH
	DB	0d8H
	DB	05cH
	DB	0d7H
	DB	064H
	DB	0d8H
	DB	064H
	DB	0f8H
	DB	06cH
	DB	018H
	DB	06dH
	DB	018H
	DB	06dH
	DB	018H
	DB	075H
	DB	039H
	DB	075H
	DB	039H
	DB	07dH
	DB	038H
	DB	075H
	DB	018H
	DB	075H
	DB	039H
	DB	075H
	DB	038H
	DB	06dH
	DB	018H
	DB	06dH
	DB	018H
	DB	075H
	DB	039H
	DB	075H
	DB	038H
	DB	075H
	DB	039H
	DB	075H
	DB	039H
	DB	075H
	DB	038H
	DB	075H
	DB	038H
	DB	075H
	DB	039H
	DB	075H
	DB	038H
	DB	075H
	DB	019H
	DB	075H
	DB	038H
	DB	075H
	DB	018H
	DB	075H
	DB	018H
	DB	06dH
	DB	018H
	DB	075H
	DB	018H
	DB	075H
	DB	0f8H
	DB	06cH
	DB	0f8H
	DB	06cH
	DB	018H
	DB	06dH
	DB	0f8H
	DB	06cH
	DB	0f8H
	DB	06cH
	DB	018H
	DB	075H
	DB	018H
	DB	075H
	DB	038H
	DB	07dH
	DB	038H
	DB	075H
	DB	038H
	DB	075H
	DB	018H
	DB	07dH
	DB	018H
	DB	075H
	DB	038H
	DB	07dH
	DB	038H
	DB	07dH
	DB	018H
	DB	075H
	DB	018H
	DB	075H
	DB	018H
	DB	075H
	DB	018H
	DB	075H
	DB	018H
	DB	075H
	DB	018H
	DB	075H
	DB	018H
	DB	075H
	DB	018H
	DB	075H
	DB	018H
	DB	075H
	DB	018H
	DB	07dH
	DB	038H
	DB	07dH
	DB	038H
	DB	07dH
	DB	038H
	DB	07dH
	DB	038H
	DB	07dH
	DB	018H
	DB	07dH
	DB	038H
	DB	07dH
	DB	038H
	DB	07dH
	DB	038H
	DB	07dH
	DB	038H
	DB	07dH
	DB	038H
	DB	07dH
	DB	038H
	DB	07dH
	DB	038H
	DB	07dH
	DB	038H
	DB	07dH
	DB	038H
	DB	07dH
	DB	038H
	DB	07dH
	DB	038H
	DB	07dH
	DB	038H
	DB	07dH
	DB	018H
	DB	07dH
	DB	018H
	DB	07dH
	DB	018H
	DB	07dH
	DB	018H
	DB	075H
	DB	018H
	DB	075H
	DB	018H
	DB	07dH
	DB	018H
	DB	07dH
	DB	018H
	DB	07dH
	DB	018H
	DB	07dH
	DB	038H
	DB	07dH
	DB	019H
	DB	085H
	DB	038H
	DB	085H
	DB	038H
	DB	085H
	DB	039H
	DB	085H
	DB	059H
	DB	085H
	DB	078H
	DB	08dH
	DB	059H
	DB	08dH
	DB	079H
	DB	08dH
	DB	078H
	DB	08dH
	DB	079H
	DB	08dH
	DB	079H
	DB	08dH
	DB	079H
	DB	095H
	DB	079H
	DB	08dH
	DB	099H
	DB	095H
	DB	099H
	DB	095H
	DB	0b9H
	DB	095H
	DB	0b9H
	DB	09dH
	DB	0b9H
	DB	095H
	DB	0b9H
	DB	09dH
	DB	0baH
	DB	09dH
	DB	0d9H
	DB	09dH
	DB	0baH
	DB	09dH
	DB	0daH
	DB	0a5H
	DB	0daH
	DB	0a5H
	DB	0faH
	DB	0a5H
	DB	0faH
	DB	0a5H
	DB	0faH
	DB	0a5H
	DB	01aH
	DB	0a6H
	DB	01aH
	DB	0aeH
	DB	01bH
	DB	0aeH
	DB	01aH
	DB	0b6H
	DB	03bH
	DB	0b6H
	DB	03bH
	DB	0b6H
	DB	05bH
	DB	0b6H
	DB	05bH
	DB	0beH
	DB	05bH
	DB	0beH
	DB	05bH
	DB	0beH
	DB	07bH
	DB	0beH
	DB	05bH
	DB	0beH
	DB	05bH
	DB	0beH
	DB	05bH
	DB	0beH
	DB	05bH
	DB	0beH
	DB	05bH
	DB	0beH
	DB	05bH
	DB	0beH
	DB	07bH
	DB	0beH
	DB	05bH
	DB	0beH
	DB	07cH
	DB	0beH
	DB	09cH
	DB	0c6H
	DB	0bcH
	DB	0ceH
	DB	0bcH
	DB	0ceH
	DB	0bcH
	DB	0c6H
	DB	0bcH
	DB	0c6H
	DB	0bcH
	DB	0c6H
	DB	0dcH
	DB	0ceH
	DB	0ddH
	DB	0ceH
	DB	0bcH
	DB	0ceH
	DB	0bcH
	DB	0c6H
	DB	0bcH
	DB	0c6H
	DB	0dcH
	DB	0ceH
	DB	0dcH
	DB	0ceH
	DB	0bcH
	DB	0c6H
	DB	09cH
	DB	0c6H
	DB	07bH
	DB	0beH
	DB	09bH
	DB	0c6H
	DB	09cH
	DB	0c6H
	DB	09cH
	DB	0c6H
	DB	0bcH
	DB	0c6H
	DB	0bcH
	DB	0ceH
	DB	0bcH
	DB	0c6H
	DB	0bcH
	DB	0ceH
	DB	0fdH
	DB	0d6H
	DB	03dH
	DB	0dfH
	DB	03dH
	DB	0dfH
	DB	01dH
	DB	0d7H
	DB	01dH
	DB	0d7H
	DB	01dH
	DB	0d7H
	DB	01dH
	DB	0d7H
	DB	01dH
	DB	0d7H
	DB	01dH
	DB	0d7H
	DB	01dH
	DB	0dfH
	DB	03eH
	DB	0dfH
	DB	05eH
	DB	0e7H
	DB	07eH
	DB	0efH
	DB	07eH
	DB	0efH
	DB	05eH
	DB	0e7H
	DB	01dH
	DB	0d7H
	DB	01dH
	DB	0d7H
	DB	01dH
	DB	0d7H
	DB	01dH
	DB	0d7H
	DB	01dH
	DB	0d7H
	DB	01dH
	DB	0d7H
	DB	01dH
	DB	0d7H
	DB	03dH
	DB	0dfH
	DB	03dH
	DB	0dfH
	DB	077H
	DB	04cH
	DB	077H
	DB	054H
	DB	077H
	DB	04cH
	DB	077H
	DB	04cH
	DB	077H
	DB	04cH
	DB	077H
	DB	04cH
	DB	077H
	DB	04cH
	DB	077H
	DB	04cH
	DB	076H
	DB	04cH
	DB	077H
	DB	04cH
	DB	077H
	DB	04cH
	DB	056H
	DB	04cH
	DB	077H
	DB	044H
	DB	057H
	DB	04cH
	DB	077H
	DB	04cH
	DB	057H
	DB	044H
	DB	057H
	DB	04cH
	DB	057H
	DB	04cH
	DB	077H
	DB	04cH
	DB	057H
	DB	04cH
	DB	057H
	DB	04cH
	DB	077H
	DB	04cH
	DB	077H
	DB	04cH
	DB	076H
	DB	04cH
	DB	077H
	DB	04cH
	DB	077H
	DB	04cH
	DB	076H
	DB	04cH
	DB	076H
	DB	04cH
	DB	077H
	DB	04cH
	DB	097H
	DB	054H
	DB	097H
	DB	054H
	DB	097H
	DB	054H
	DB	097H
	DB	04cH
	DB	097H
	DB	04cH
	DB	097H
	DB	054H
	DB	097H
	DB	054H
	DB	097H
	DB	04cH
	DB	097H
	DB	054H
	DB	097H
	DB	054H
	DB	097H
	DB	054H
	DB	097H
	DB	054H
	DB	097H
	DB	054H
	DB	077H
	DB	054H
	DB	097H
	DB	054H
	DB	097H
	DB	054H
	DB	097H
	DB	054H
	DB	097H
	DB	054H
	DB	097H
	DB	054H
	DB	097H
	DB	054H
	DB	097H
	DB	054H
	DB	097H
	DB	054H
	DB	077H
	DB	054H
	DB	097H
	DB	054H
	DB	097H
	DB	054H
	DB	097H
	DB	054H
	DB	097H
	DB	054H
	DB	097H
	DB	054H
	DB	097H
	DB	054H
	DB	097H
	DB	054H
	DB	097H
	DB	054H
	DB	0b7H
	DB	054H
	DB	0b7H
	DB	05cH
	DB	0b7H
	DB	054H
	DB	0b7H
	DB	054H
	DB	0b7H
	DB	05cH
	DB	0d8H
	DB	05cH
	DB	0d8H
	DB	064H
	DB	0d7H
	DB	064H
	DB	0d7H
	DB	064H
	DB	0f8H
	DB	06cH
	DB	0f8H
	DB	06cH
	DB	018H
	DB	06dH
	DB	038H
	DB	075H
	DB	018H
	DB	06dH
	DB	038H
	DB	075H
	DB	039H
	DB	075H
	DB	019H
	DB	075H
	DB	038H
	DB	075H
	DB	038H
	DB	06dH
	DB	019H
	DB	075H
	DB	038H
	DB	06dH
	DB	018H
	DB	06dH
	DB	018H
	DB	06dH
	DB	038H
	DB	075H
	DB	039H
	DB	075H
	DB	039H
	DB	075H
	DB	039H
	DB	075H
	DB	038H
	DB	075H
	DB	038H
	DB	075H
	DB	039H
	DB	075H
	DB	018H
	DB	06dH
	DB	018H
	DB	075H
	DB	018H
	DB	075H
	DB	018H
	DB	06dH
	DB	018H
	DB	06dH
	DB	018H
	DB	06dH
	DB	018H
	DB	06dH
	DB	018H
	DB	075H
	DB	0f8H
	DB	06cH
	DB	018H
	DB	075H
	DB	038H
	DB	075H
	DB	038H
	DB	07dH
	DB	059H
	DB	07dH
	DB	038H
	DB	075H
	DB	038H
	DB	075H
	DB	038H
	DB	075H
	DB	038H
	DB	075H
	DB	018H
	DB	075H
	DB	018H
	DB	075H
	DB	018H
	DB	075H
	DB	018H
	DB	075H
	DB	018H
	DB	075H
	DB	018H
	DB	075H
	DB	018H
	DB	075H
	DB	018H
	DB	075H
	DB	038H
	DB	075H
	DB	018H
	DB	075H
	DB	038H
	DB	07dH
	DB	038H
	DB	07dH
	DB	038H
	DB	07dH
	DB	038H
	DB	07dH
	DB	038H
	DB	07dH
	DB	038H
	DB	07dH
	DB	038H
	DB	07dH
	DB	038H
	DB	07dH
	DB	038H
	DB	07dH
	DB	038H
	DB	07dH
	DB	058H
	DB	07dH
	DB	038H
	DB	07dH
	DB	038H
	DB	07dH
	DB	038H
	DB	085H
	DB	038H
	DB	07dH
	DB	058H
	DB	07dH
	DB	038H
	DB	085H
	DB	038H
	DB	07dH
	DB	038H
	DB	07dH
	DB	038H
	DB	07dH
	DB	038H
	DB	07dH
	DB	018H
	DB	07dH
	DB	038H
	DB	07dH
	DB	038H
	DB	07dH
	DB	018H
	DB	07dH
	DB	038H
	DB	07dH
	DB	038H
	DB	07dH
	DB	038H
	DB	07dH
	DB	038H
	DB	07dH
	DB	039H
	DB	07dH
	DB	039H
	DB	085H
	DB	059H
	DB	085H
	DB	058H
	DB	085H
	DB	058H
	DB	085H
	DB	059H
	DB	085H
	DB	079H
	DB	08dH
	DB	079H
	DB	08dH
	DB	079H
	DB	08dH
	DB	079H
	DB	08dH
	DB	079H
	DB	095H
	DB	099H
	DB	095H
	DB	099H
	DB	095H
	DB	099H
	DB	095H
	DB	099H
	DB	095H
	DB	0d9H
	DB	09dH
	DB	0baH
	DB	09dH
	DB	0daH
	DB	09dH
	DB	0daH
	DB	09dH
	DB	0daH
	DB	0a5H
	DB	0daH
	DB	09dH
	DB	0faH
	DB	0a5H
	DB	0faH
	DB	0a5H
	DB	0faH
	DB	0a5H
	DB	0faH
	DB	0adH
	DB	01aH
	DB	0aeH
	DB	01aH
	DB	0aeH
	DB	01bH
	DB	0b6H
	DB	03bH
	DB	0b6H
	DB	03bH
	DB	0b6H
	DB	03bH
	DB	0b6H
	DB	05bH
	DB	0b6H
	DB	03bH
	DB	0b6H
	DB	03bH
	DB	0b6H
	DB	03aH
	DB	0b6H
	DB	05bH
	DB	0b6H
	DB	05bH
	DB	0b6H
	DB	05bH
	DB	0b6H
	DB	05bH
	DB	0beH
	DB	05bH
	DB	0beH
	DB	05bH
	DB	0beH
	DB	05bH
	DB	0beH
	DB	07bH
	DB	0beH
	DB	05bH
	DB	0beH
	DB	07bH
	DB	0c6H
	DB	0bcH
	DB	0c6H
	DB	0bcH
	DB	0ceH
	DB	0bcH
	DB	0c6H
	DB	09cH
	DB	0c6H
	DB	09cH
	DB	0c6H
	DB	0bcH
	DB	0c6H
	DB	0bcH
	DB	0c6H
	DB	0bcH
	DB	0ceH
	DB	0bcH
	DB	0c6H
	DB	0bcH
	DB	0c6H
	DB	0bcH
	DB	0c6H
	DB	0bcH
	DB	0ceH
	DB	0dcH
	DB	0ceH
	DB	09cH
	DB	0c6H
	DB	07cH
	DB	0c6H
	DB	07cH
	DB	0beH
	DB	07bH
	DB	0beH
	DB	07bH
	DB	0beH
	DB	07cH
	DB	0c6H
	DB	07bH
	DB	0c6H
	DB	09cH
	DB	0c6H
	DB	09cH
	DB	0c6H
	DB	0bcH
	DB	0c6H
	DB	0bcH
	DB	0ceH
	DB	0fdH
	DB	0d6H
	DB	0fdH
	DB	0d6H
	DB	01dH
	DB	0d7H
	DB	0fdH
	DB	0d6H
	DB	0fdH
	DB	0d6H
	DB	0fdH
	DB	0ceH
	DB	0fdH
	DB	0ceH
	DB	0fdH
	DB	0ceH
	DB	0fdH
	DB	0d6H
	DB	01dH
	DB	0d7H
	DB	03dH
	DB	0d7H
	DB	03eH
	DB	0dfH
	DB	07eH
	DB	0e7H
	DB	07eH
	DB	0e7H
	DB	03eH
	DB	0dfH
	DB	0fdH
	DB	0d6H
	DB	0dcH
	DB	0ceH
	DB	0fdH
	DB	0d6H
	DB	0fdH
	DB	0d6H
	DB	0dcH
	DB	0ceH
	DB	0dcH
	DB	0ceH
	DB	0fdH
	DB	0d6H
	DB	0fdH
	DB	0d6H
	DB	0fdH
	DB	0d6H
	DB	01dH
	DB	0d7H
	DB	077H
	DB	04cH
	DB	077H
	DB	04cH
	DB	077H
	DB	04cH
	DB	077H
	DB	04cH
	DB	077H
	DB	04cH
	DB	076H
	DB	04cH
	DB	077H
	DB	04cH
	DB	077H
	DB	04cH
	DB	077H
	DB	04cH
	DB	077H
	DB	04cH
	DB	077H
	DB	04cH
	DB	076H
	DB	04cH
	DB	077H
	DB	04cH
	DB	077H
	DB	04cH
	DB	077H
	DB	04cH
	DB	077H
	DB	04cH
	DB	076H
	DB	04cH
	DB	077H
	DB	04cH
	DB	077H
	DB	04cH
	DB	077H
	DB	04cH
	DB	077H
	DB	04cH
	DB	077H
	DB	04cH
	DB	077H
	DB	04cH
	DB	077H
	DB	04cH
	DB	077H
	DB	04cH
	DB	077H
	DB	04cH
	DB	077H
	DB	04cH
	DB	077H
	DB	054H
	DB	097H
	DB	054H
	DB	097H
	DB	054H
	DB	097H
	DB	054H
	DB	097H
	DB	054H
	DB	077H
	DB	04cH
	DB	077H
	DB	04cH
	DB	077H
	DB	04cH
	DB	097H
	DB	04cH
	DB	097H
	DB	04cH
	DB	097H
	DB	054H
	DB	097H
	DB	054H
	DB	097H
	DB	054H
	DB	097H
	DB	054H
	DB	0b7H
	DB	054H
	DB	097H
	DB	05cH
	DB	0b7H
	DB	054H
	DB	097H
	DB	054H
	DB	097H
	DB	054H
	DB	097H
	DB	054H
	DB	097H
	DB	054H
	DB	097H
	DB	054H
	DB	097H
	DB	054H
	DB	097H
	DB	054H
	DB	097H
	DB	054H
	DB	097H
	DB	054H
	DB	097H
	DB	054H
	DB	0b7H
	DB	054H
	DB	097H
	DB	054H
	DB	097H
	DB	05cH
	DB	097H
	DB	05cH
	DB	097H
	DB	05cH
	DB	0b7H
	DB	054H
	DB	097H
	DB	05cH
	DB	097H
	DB	054H
	DB	0b7H
	DB	05cH
	DB	0b8H
	DB	05cH
	DB	0b8H
	DB	05cH
	DB	0b7H
	DB	05cH
	DB	0d7H
	DB	05cH
	DB	0d8H
	DB	064H
	DB	0f8H
	DB	064H
	DB	0f8H
	DB	064H
	DB	018H
	DB	06dH
	DB	018H
	DB	06dH
	DB	038H
	DB	06dH
	DB	018H
	DB	06dH
	DB	038H
	DB	075H
	DB	018H
	DB	075H
	DB	018H
	DB	075H
	DB	038H
	DB	075H
	DB	018H
	DB	06dH
	DB	018H
	DB	075H
	DB	038H
	DB	075H
	DB	038H
	DB	06dH
	DB	018H
	DB	075H
	DB	018H
	DB	06dH
	DB	018H
	DB	06dH
	DB	038H
	DB	075H
	DB	038H
	DB	075H
	DB	039H
	DB	075H
	DB	018H
	DB	075H
	DB	018H
	DB	075H
	DB	039H
	DB	075H
	DB	039H
	DB	075H
	DB	018H
	DB	075H
	DB	018H
	DB	06dH
	DB	019H
	DB	06dH
	DB	018H
	DB	075H
	DB	018H
	DB	06dH
	DB	018H
	DB	075H
	DB	038H
	DB	075H
	DB	038H
	DB	075H
	DB	038H
	DB	07dH
	DB	039H
	DB	075H
	DB	039H
	DB	07dH
	DB	038H
	DB	07dH
	DB	039H
	DB	07dH
	DB	039H
	DB	07dH
	DB	038H
	DB	075H
	DB	018H
	DB	075H
	DB	038H
	DB	075H
	DB	038H
	DB	075H
	DB	038H
	DB	075H
	DB	018H
	DB	075H
	DB	018H
	DB	075H
	DB	018H
	DB	075H
	DB	038H
	DB	07dH
	DB	038H
	DB	07dH
	DB	038H
	DB	07dH
	DB	038H
	DB	07dH
	DB	038H
	DB	07dH
	DB	059H
	DB	07dH
	DB	038H
	DB	07dH
	DB	058H
	DB	07dH
	DB	059H
	DB	07dH
	DB	058H
	DB	07dH
	DB	058H
	DB	085H
	DB	059H
	DB	07dH
	DB	058H
	DB	07dH
	DB	059H
	DB	085H
	DB	059H
	DB	085H
	DB	058H
	DB	07dH
	DB	058H
	DB	085H
	DB	059H
	DB	085H
	DB	059H
	DB	085H
	DB	059H
	DB	07dH
	DB	038H
	DB	085H
	DB	038H
	DB	07dH
	DB	039H
	DB	07dH
	DB	038H
	DB	07dH
	DB	038H
	DB	07dH
	DB	018H
	DB	07dH
	DB	018H
	DB	07dH
	DB	038H
	DB	07dH
	DB	038H
	DB	07dH
	DB	038H
	DB	07dH
	DB	039H
	DB	07dH
	DB	039H
	DB	085H
	DB	038H
	DB	085H
	DB	038H
	DB	085H
	DB	059H
	DB	085H
	DB	059H
	DB	085H
	DB	059H
	DB	08dH
	DB	079H
	DB	08dH
	DB	059H
	DB	08dH
	DB	079H
	DB	08dH
	DB	099H
	DB	08dH
	DB	099H
	DB	08dH
	DB	079H
	DB	08dH
	DB	099H
	DB	095H
	DB	0b9H
	DB	095H
	DB	0b9H
	DB	095H
	DB	0baH
	DB	09dH
	DB	0baH
	DB	09dH
	DB	0daH
	DB	09dH
	DB	0daH
	DB	09dH
	DB	0daH
	DB	09dH
	DB	0daH
	DB	0a5H
	DB	0faH
	DB	0a5H
	DB	0faH
	DB	0a5H
	DB	01aH
	DB	0aeH
	DB	01bH
	DB	0aeH
	DB	03bH
	DB	0aeH
	DB	03bH
	DB	0aeH
	DB	03bH
	DB	0b6H
	DB	03aH
	DB	0aeH
	DB	03bH
	DB	0aeH
	DB	03bH
	DB	0b6H
	DB	03bH
	DB	0b6H
	DB	03bH
	DB	0b6H
	DB	03bH
	DB	0b6H
	DB	05bH
	DB	0b6H
	DB	05bH
	DB	0b6H
	DB	03bH
	DB	0b6H
	DB	05bH
	DB	0b6H
	DB	03bH
	DB	0beH
	DB	03bH
	DB	0b6H
	DB	05bH
	DB	0b6H
	DB	05bH
	DB	0beH
	DB	05bH
	DB	0beH
	DB	07bH
	DB	0beH
	DB	09cH
	DB	0c6H
	DB	09cH
	DB	0c6H
	DB	09cH
	DB	0c6H
	DB	09cH
	DB	0c6H
	DB	09bH
	DB	0c6H
	DB	09cH
	DB	0c6H
	DB	09cH
	DB	0c6H
	DB	09cH
	DB	0c6H
	DB	09cH
	DB	0c6H
	DB	09cH
	DB	0c6H
	DB	09cH
	DB	0c6H
	DB	09cH
	DB	0c6H
	DB	09cH
	DB	0c6H
	DB	09cH
	DB	0c6H
	DB	09cH
	DB	0c6H
	DB	07bH
	DB	0beH
	DB	05bH
	DB	0beH
	DB	07bH
	DB	0beH
	DB	05bH
	DB	0beH
	DB	05bH
	DB	0beH
	DB	07cH
	DB	0beH
	DB	07bH
	DB	0beH
	DB	07bH
	DB	0beH
	DB	09cH
	DB	0c6H
	DB	0bcH
	DB	0ceH
	DB	0dcH
	DB	0ceH
	DB	0fdH
	DB	0d6H
	DB	0fdH
	DB	0d6H
	DB	0ddH
	DB	0d6H
	DB	0dcH
	DB	0ceH
	DB	0dcH
	DB	0ceH
	DB	0dcH
	DB	0ceH
	DB	0fdH
	DB	0ceH
	DB	0fdH
	DB	0d6H
	DB	0dcH
	DB	0ceH
	DB	0fdH
	DB	0d6H
	DB	01dH
	DB	0d7H
	DB	03eH
	DB	0dfH
	DB	07eH
	DB	0e7H
	DB	03dH
	DB	0dfH
	DB	01dH
	DB	0d7H
	DB	0fdH
	DB	0ceH
	DB	0ddH
	DB	0ceH
	DB	0dcH
	DB	0ceH
	DB	0bcH
	DB	0ceH
	DB	0dcH
	DB	0ceH
	DB	0dcH
	DB	0ceH
	DB	0ddH
	DB	0ceH
	DB	0dcH
	DB	0ceH
	DB	0fdH
	DB	0ceH
	DB	01dH
	DB	0d7H
	DB	097H
	DB	04cH
	DB	077H
	DB	054H
	DB	097H
	DB	04cH
	DB	077H
	DB	04cH
	DB	076H
	DB	04cH
	DB	077H
	DB	04cH
	DB	077H
	DB	04cH
	DB	077H
	DB	04cH
	DB	077H
	DB	04cH
	DB	076H
	DB	04cH
	DB	077H
	DB	04cH
	DB	077H
	DB	04cH
	DB	077H
	DB	04cH
	DB	077H
	DB	04cH
	DB	077H
	DB	04cH
	DB	076H
	DB	04cH
	DB	077H
	DB	04cH
	DB	096H
	DB	04cH
	DB	076H
	DB	04cH
	DB	077H
	DB	04cH
	DB	076H
	DB	04cH
	DB	076H
	DB	04cH
	DB	077H
	DB	04cH
	DB	077H
	DB	04cH
	DB	077H
	DB	054H
	DB	097H
	DB	054H
	DB	077H
	DB	04cH
	DB	097H
	DB	054H
	DB	097H
	DB	054H
	DB	097H
	DB	054H
	DB	097H
	DB	054H
	DB	077H
	DB	04cH
	DB	077H
	DB	04cH
	DB	077H
	DB	04cH
	DB	077H
	DB	04cH
	DB	077H
	DB	04cH
	DB	077H
	DB	04cH
	DB	077H
	DB	04cH
	DB	097H
	DB	054H
	DB	097H
	DB	054H
	DB	0b7H
	DB	054H
	DB	0b7H
	DB	054H
	DB	097H
	DB	05cH
	DB	0b7H
	DB	054H
	DB	0b7H
	DB	05cH
	DB	097H
	DB	05cH
	DB	097H
	DB	05cH
	DB	097H
	DB	054H
	DB	0b7H
	DB	054H
	DB	097H
	DB	054H
	DB	097H
	DB	054H
	DB	097H
	DB	054H
	DB	097H
	DB	054H
	DB	097H
	DB	054H
	DB	0b7H
	DB	054H
	DB	097H
	DB	054H
	DB	0b7H
	DB	054H
	DB	097H
	DB	054H
	DB	0b7H
	DB	05cH
	DB	0b7H
	DB	05cH
	DB	097H
	DB	05cH
	DB	0b7H
	DB	05cH
	DB	0b7H
	DB	05cH
	DB	0b8H
	DB	05cH
	DB	0b7H
	DB	05cH
	DB	0b7H
	DB	05cH
	DB	0d8H
	DB	05cH
	DB	0d8H
	DB	064H
	DB	0d8H
	DB	064H
	DB	0f8H
	DB	064H
	DB	0f8H
	DB	064H
	DB	018H
	DB	06dH
	DB	018H
	DB	06dH
	DB	039H
	DB	075H
	DB	018H
	DB	06dH
	DB	038H
	DB	06dH
	DB	018H
	DB	06dH
	DB	018H
	DB	06dH
	DB	038H
	DB	075H
	DB	039H
	DB	06dH
	DB	039H
	DB	075H
	DB	038H
	DB	075H
	DB	039H
	DB	075H
	DB	019H
	DB	06dH
	DB	018H
	DB	075H
	DB	018H
	DB	06dH
	DB	018H
	DB	06dH
	DB	018H
	DB	075H
	DB	039H
	DB	075H
	DB	038H
	DB	075H
	DB	038H
	DB	075H
	DB	038H
	DB	075H
	DB	038H
	DB	075H
	DB	038H
	DB	075H
	DB	039H
	DB	075H
	DB	018H
	DB	075H
	DB	019H
	DB	075H
	DB	039H
	DB	075H
	DB	038H
	DB	075H
	DB	039H
	DB	075H
	DB	039H
	DB	07dH
	DB	038H
	DB	07dH
	DB	038H
	DB	075H
	DB	038H
	DB	07dH
	DB	038H
	DB	07dH
	DB	039H
	DB	075H
	DB	038H
	DB	075H
	DB	038H
	DB	075H
	DB	039H
	DB	07dH
	DB	039H
	DB	075H
	DB	038H
	DB	075H
	DB	038H
	DB	07dH
	DB	038H
	DB	07dH
	DB	038H
	DB	07dH
	DB	039H
	DB	07dH
	DB	038H
	DB	075H
	DB	039H
	DB	07dH
	DB	038H
	DB	07dH
	DB	058H
	DB	07dH
	DB	038H
	DB	07dH
	DB	059H
	DB	07dH
	DB	038H
	DB	07dH
	DB	039H
	DB	07dH
	DB	058H
	DB	07dH
	DB	059H
	DB	085H
	DB	058H
	DB	085H
	DB	059H
	DB	085H
	DB	058H
	DB	085H
	DB	058H
	DB	085H
	DB	059H
	DB	085H
	DB	058H
	DB	07dH
	DB	059H
	DB	085H
	DB	058H
	DB	085H
	DB	058H
	DB	085H
	DB	058H
	DB	07dH
	DB	059H
	DB	07dH
	DB	038H
	DB	07dH
	DB	038H
	DB	07dH
	DB	038H
	DB	07dH
	DB	039H
	DB	07dH
	DB	038H
	DB	07dH
	DB	038H
	DB	07dH
	DB	039H
	DB	07dH
	DB	038H
	DB	07dH
	DB	039H
	DB	085H
	DB	059H
	DB	085H
	DB	059H
	DB	085H
	DB	039H
	DB	085H
	DB	058H
	DB	085H
	DB	079H
	DB	085H
	DB	079H
	DB	08dH
	DB	079H
	DB	085H
	DB	079H
	DB	08dH
	DB	079H
	DB	08dH
	DB	079H
	DB	08dH
	DB	099H
	DB	08dH
	DB	099H
	DB	095H
	DB	099H
	DB	095H
	DB	0baH
	DB	095H
	DB	0baH
	DB	09dH
	DB	0baH
	DB	09dH
	DB	0daH
	DB	09dH
	DB	0d9H
	DB	09dH
	DB	0faH
	DB	0a5H
	DB	0faH
	DB	0a5H
	DB	0faH
	DB	0a5H
	DB	03bH
	DB	0aeH
	DB	03aH
	DB	0aeH
	DB	01bH
	DB	0aeH
	DB	03aH
	DB	0aeH
	DB	03aH
	DB	0aeH
	DB	01bH
	DB	0aeH
	DB	03aH
	DB	0aeH
	DB	03bH
	DB	0aeH
	DB	03bH
	DB	0b6H
	DB	03aH
	DB	0aeH
	DB	03aH
	DB	0aeH
	DB	03aH
	DB	0aeH
	DB	03bH
	DB	0b6H
	DB	03bH
	DB	0b6H
	DB	03aH
	DB	0b6H
	DB	03bH
	DB	0b6H
	DB	03bH
	DB	0b6H
	DB	03bH
	DB	0beH
	DB	05aH
	DB	0b6H
	DB	05bH
	DB	0b6H
	DB	07bH
	DB	0c6H
	DB	07cH
	DB	0beH
	DB	09cH
	DB	0c6H
	DB	09bH
	DB	0c6H
	DB	09cH
	DB	0beH
	DB	07bH
	DB	0beH
	DB	07bH
	DB	0beH
	DB	09cH
	DB	0c6H
	DB	09cH
	DB	0c6H
	DB	09bH
	DB	0c6H
	DB	09bH
	DB	0beH
	DB	09bH
	DB	0c6H
	DB	07bH
	DB	0beH
	DB	09cH
	DB	0c6H
	DB	09cH
	DB	0c6H
	DB	07bH
	DB	0beH
	DB	05bH
	DB	0beH
	DB	05bH
	DB	0b6H
	DB	05bH
	DB	0beH
	DB	05bH
	DB	0beH
	DB	07bH
	DB	0beH
	DB	05bH
	DB	0beH
	DB	07bH
	DB	0c6H
	DB	09cH
	DB	0c6H
	DB	09bH
	DB	0c6H
	DB	07cH
	DB	0c6H
	DB	09cH
	DB	0c6H
	DB	0bcH
	DB	0ceH
	DB	0fdH
	DB	0d6H
	DB	0fcH
	DB	0d6H
	DB	0bcH
	DB	0ceH
	DB	0bcH
	DB	0ceH
	DB	0dcH
	DB	0ceH
	DB	0bcH
	DB	0c6H
	DB	0ddH
	DB	0ceH
	DB	0fdH
	DB	0ceH
	DB	0ddH
	DB	0ceH
	DB	0fdH
	DB	0ceH
	DB	0fcH
	DB	0ceH
	DB	0fdH
	DB	0d6H
	DB	05eH
	DB	0dfH
	DB	05eH
	DB	0e7H
	DB	01dH
	DB	0dfH
	DB	0fdH
	DB	0d6H
	DB	0dcH
	DB	0ceH
	DB	0bcH
	DB	0ceH
	DB	0dcH
	DB	0ceH
	DB	0bcH
	DB	0ceH
	DB	0bcH
	DB	0ceH
	DB	0bcH
	DB	0ceH
	DB	0dcH
	DB	0ceH
	DB	0dcH
	DB	0ceH
	DB	0dcH
	DB	0ceH
	DB	0fdH
	DB	0d6H
	DB	097H
	DB	054H
	DB	097H
	DB	04cH
	DB	077H
	DB	04cH
	DB	077H
	DB	04cH
	DB	077H
	DB	04cH
	DB	077H
	DB	04cH
	DB	077H
	DB	04cH
	DB	097H
	DB	054H
	DB	077H
	DB	054H
	DB	077H
	DB	04cH
	DB	097H
	DB	054H
	DB	077H
	DB	054H
	DB	097H
	DB	054H
	DB	097H
	DB	054H
	DB	097H
	DB	054H
	DB	097H
	DB	054H
	DB	097H
	DB	054H
	DB	097H
	DB	054H
	DB	097H
	DB	054H
	DB	097H
	DB	054H
	DB	097H
	DB	054H
	DB	097H
	DB	054H
	DB	097H
	DB	054H
	DB	097H
	DB	054H
	DB	097H
	DB	054H
	DB	097H
	DB	054H
	DB	0b7H
	DB	054H
	DB	097H
	DB	054H
	DB	097H
	DB	054H
	DB	0b7H
	DB	054H
	DB	097H
	DB	054H
	DB	0b7H
	DB	054H
	DB	0b7H
	DB	054H
	DB	097H
	DB	054H
	DB	077H
	DB	044H
	DB	077H
	DB	04cH
	DB	077H
	DB	04cH
	DB	077H
	DB	04cH
	DB	097H
	DB	04cH
	DB	097H
	DB	054H
	DB	097H
	DB	054H
	DB	0b8H
	DB	05cH
	DB	0b8H
	DB	05cH
	DB	0b7H
	DB	05cH
	DB	0b7H
	DB	05cH
	DB	0b8H
	DB	05cH
	DB	0b7H
	DB	05cH
	DB	0b7H
	DB	05cH
	DB	0b7H
	DB	05cH
	DB	0b7H
	DB	05cH
	DB	0b7H
	DB	05cH
	DB	0b8H
	DB	05cH
	DB	0b7H
	DB	05cH
	DB	0b7H
	DB	05cH
	DB	0b7H
	DB	05cH
	DB	0b7H
	DB	05cH
	DB	0b8H
	DB	05cH
	DB	0b7H
	DB	05cH
	DB	0b7H
	DB	05cH
	DB	0b7H
	DB	05cH
	DB	0b7H
	DB	05cH
	DB	0b8H
	DB	05cH
	DB	0b8H
	DB	05cH
	DB	0b7H
	DB	05cH
	DB	0b8H
	DB	05cH
	DB	0b8H
	DB	064H
	DB	0d8H
	DB	064H
	DB	0d7H
	DB	064H
	DB	0f8H
	DB	064H
	DB	0f8H
	DB	064H
	DB	0f8H
	DB	064H
	DB	018H
	DB	06dH
	DB	019H
	DB	06dH
	DB	019H
	DB	075H
	DB	039H
	DB	075H
	DB	039H
	DB	075H
	DB	019H
	DB	06dH
	DB	018H
	DB	06dH
	DB	018H
	DB	06dH
	DB	018H
	DB	06dH
	DB	018H
	DB	06dH
	DB	018H
	DB	06dH
	DB	019H
	DB	06dH
	DB	018H
	DB	06dH
	DB	039H
	DB	075H
	DB	039H
	DB	075H
	DB	018H
	DB	075H
	DB	039H
	DB	075H
	DB	019H
	DB	06dH
	DB	018H
	DB	075H
	DB	039H
	DB	075H
	DB	039H
	DB	075H
	DB	039H
	DB	075H
	DB	038H
	DB	075H
	DB	038H
	DB	075H
	DB	039H
	DB	075H
	DB	038H
	DB	075H
	DB	039H
	DB	075H
	DB	039H
	DB	075H
	DB	038H
	DB	075H
	DB	059H
	DB	07dH
	DB	038H
	DB	075H
	DB	039H
	DB	075H
	DB	039H
	DB	075H
	DB	038H
	DB	07dH
	DB	039H
	DB	075H
	DB	039H
	DB	07dH
	DB	039H
	DB	075H
	DB	018H
	DB	075H
	DB	018H
	DB	075H
	DB	039H
	DB	07dH
	DB	059H
	DB	075H
	DB	039H
	DB	07dH
	DB	059H
	DB	07dH
	DB	058H
	DB	07dH
	DB	059H
	DB	07dH
	DB	059H
	DB	085H
	DB	059H
	DB	085H
	DB	059H
	DB	07dH
	DB	059H
	DB	085H
	DB	059H
	DB	085H
	DB	059H
	DB	085H
	DB	059H
	DB	085H
	DB	059H
	DB	085H
	DB	059H
	DB	085H
	DB	059H
	DB	085H
	DB	058H
	DB	085H
	DB	059H
	DB	085H
	DB	059H
	DB	085H
	DB	059H
	DB	07dH
	DB	059H
	DB	085H
	DB	059H
	DB	085H
	DB	059H
	DB	085H
	DB	059H
	DB	085H
	DB	079H
	DB	085H
	DB	059H
	DB	085H
	DB	059H
	DB	085H
	DB	058H
	DB	085H
	DB	059H
	DB	085H
	DB	059H
	DB	085H
	DB	059H
	DB	085H
	DB	059H
	DB	085H
	DB	059H
	DB	085H
	DB	059H
	DB	085H
	DB	059H
	DB	085H
	DB	058H
	DB	085H
	DB	059H
	DB	085H
	DB	059H
	DB	085H
	DB	059H
	DB	085H
	DB	079H
	DB	08dH
	DB	079H
	DB	085H
	DB	079H
	DB	08dH
	DB	079H
	DB	08dH
	DB	099H
	DB	08dH
	DB	099H
	DB	095H
	DB	099H
	DB	095H
	DB	0baH
	DB	095H
	DB	0baH
	DB	095H
	DB	0daH
	DB	09dH
	DB	0daH
	DB	09dH
	DB	0daH
	DB	09dH
	DB	0daH
	DB	09dH
	DB	0faH
	DB	0a5H
	DB	0faH
	DB	0a5H
	DB	01aH
	DB	0a6H
	DB	01bH
	DB	0aeH
	DB	01bH
	DB	0aeH
	DB	01aH
	DB	0a6H
	DB	01aH
	DB	0aeH
	DB	01bH
	DB	0aeH
	DB	01bH
	DB	0aeH
	DB	03bH
	DB	0aeH
	DB	01aH
	DB	0aeH
	DB	01bH
	DB	0aeH
	DB	03bH
	DB	0aeH
	DB	03bH
	DB	0aeH
	DB	03bH
	DB	0aeH
	DB	01aH
	DB	0aeH
	DB	03bH
	DB	0b6H
	DB	03bH
	DB	0b6H
	DB	03aH
	DB	0b6H
	DB	03bH
	DB	0b6H
	DB	03bH
	DB	0b6H
	DB	05bH
	DB	0beH
	DB	05bH
	DB	0beH
	DB	07bH
	DB	0c6H
	DB	07bH
	DB	0beH
	DB	07bH
	DB	0beH
	DB	07bH
	DB	0beH
	DB	07bH
	DB	0beH
	DB	07bH
	DB	0c6H
	DB	09cH
	DB	0c6H
	DB	09cH
	DB	0c6H
	DB	09bH
	DB	0c6H
	DB	07bH
	DB	0beH
	DB	07bH
	DB	0beH
	DB	07bH
	DB	0beH
	DB	07cH
	DB	0beH
	DB	09cH
	DB	0beH
	DB	07bH
	DB	0beH
	DB	03bH
	DB	0b6H
	DB	05bH
	DB	0b6H
	DB	05bH
	DB	0b6H
	DB	03bH
	DB	0b6H
	DB	03bH
	DB	0b6H
	DB	05bH
	DB	0beH
	DB	05bH
	DB	0beH
	DB	07bH
	DB	0beH
	DB	07bH
	DB	0beH
	DB	07bH
	DB	0beH
	DB	07cH
	DB	0c6H
	DB	09cH
	DB	0c6H
	DB	0bcH
	DB	0ceH
	DB	0dcH
	DB	0ceH
	DB	0dcH
	DB	0ceH
	DB	0bcH
	DB	0ceH
	DB	0bcH
	DB	0ceH
	DB	09cH
	DB	0c6H
	DB	09cH
	DB	0c6H
	DB	0bcH
	DB	0c6H
	DB	0dcH
	DB	0c6H
	DB	0dcH
	DB	0ceH
	DB	0dcH
	DB	0ceH
	DB	0ddH
	DB	0ceH
	DB	0fdH
	DB	0d6H
	DB	01dH
	DB	0d7H
	DB	03dH
	DB	0dfH
	DB	01dH
	DB	0d7H
	DB	0fdH
	DB	0d6H
	DB	0ddH
	DB	0ceH
	DB	0bcH
	DB	0ceH
	DB	0bcH
	DB	0ceH
	DB	0bcH
	DB	0ceH
	DB	0bcH
	DB	0c6H
	DB	09cH
	DB	0c6H
	DB	09cH
	DB	0c6H
	DB	0bcH
	DB	0ceH
	DB	09cH
	DB	0c6H
	DB	0bcH
	DB	0ceH
	DB	0ddH
	DB	0ceH
	DB	097H
	DB	04cH
	DB	097H
	DB	054H
	DB	097H
	DB	054H
	DB	097H
	DB	04cH
	DB	097H
	DB	04cH
	DB	097H
	DB	054H
	DB	077H
	DB	054H
	DB	097H
	DB	04cH
	DB	077H
	DB	04cH
	DB	077H
	DB	04cH
	DB	097H
	DB	04cH
	DB	097H
	DB	054H
	DB	097H
	DB	054H
	DB	097H
	DB	04cH
	DB	097H
	DB	054H
	DB	097H
	DB	054H
	DB	097H
	DB	054H
	DB	097H
	DB	054H
	DB	0b7H
	DB	054H
	DB	097H
	DB	054H
	DB	0b7H
	DB	054H
	DB	0b7H
	DB	054H
	DB	0b7H
	DB	054H
	DB	0b7H
	DB	054H
	DB	0b7H
	DB	054H
	DB	0b7H
	DB	054H
	DB	0b7H
	DB	054H
	DB	0b7H
	DB	054H
	DB	097H
	DB	054H
	DB	097H
	DB	054H
	DB	0b8H
	DB	054H
	DB	0b7H
	DB	054H
	DB	0b8H
	DB	05cH
	DB	0d8H
	DB	054H
	DB	097H
	DB	04cH
	DB	077H
	DB	04cH
	DB	097H
	DB	04cH
	DB	097H
	DB	054H
	DB	098H
	DB	054H
	DB	097H
	DB	054H
	DB	097H
	DB	054H
	DB	0d8H
	DB	05cH
	DB	0b7H
	DB	05cH
	DB	0b7H
	DB	05cH
	DB	0b8H
	DB	05cH
	DB	0b7H
	DB	05cH
	DB	0d7H
	DB	05cH
	DB	0b8H
	DB	05cH
	DB	0b8H
	DB	05cH
	DB	0b7H
	DB	05cH
	DB	0b8H
	DB	05cH
	DB	0b8H
	DB	05cH
	DB	0b7H
	DB	05cH
	DB	0b8H
	DB	05cH
	DB	0b8H
	DB	05cH
	DB	0b8H
	DB	05cH
	DB	0b7H
	DB	05cH
	DB	0b7H
	DB	05cH
	DB	0b8H
	DB	05cH
	DB	0b8H
	DB	05cH
	DB	0b8H
	DB	05cH
	DB	0b7H
	DB	05cH
	DB	0b8H
	DB	05cH
	DB	0d7H
	DB	05cH
	DB	0d7H
	DB	05cH
	DB	0d8H
	DB	064H
	DB	0d7H
	DB	064H
	DB	0d8H
	DB	05cH
	DB	0f8H
	DB	064H
	DB	0f8H
	DB	064H
	DB	0f8H
	DB	06cH
	DB	0f8H
	DB	06cH
	DB	018H
	DB	06dH
	DB	018H
	DB	06dH
	DB	018H
	DB	06dH
	DB	018H
	DB	06dH
	DB	018H
	DB	06dH
	DB	019H
	DB	06dH
	DB	018H
	DB	06dH
	DB	018H
	DB	06dH
	DB	018H
	DB	06dH
	DB	018H
	DB	06dH
	DB	018H
	DB	06dH
	DB	018H
	DB	06dH
	DB	018H
	DB	06dH
	DB	018H
	DB	06dH
	DB	038H
	DB	075H
	DB	039H
	DB	075H
	DB	039H
	DB	075H
	DB	039H
	DB	075H
	DB	038H
	DB	075H
	DB	019H
	DB	06dH
	DB	018H
	DB	075H
	DB	038H
	DB	075H
	DB	039H
	DB	075H
	DB	039H
	DB	075H
	DB	059H
	DB	07dH
	DB	058H
	DB	07dH
	DB	039H
	DB	075H
	DB	059H
	DB	07dH
	DB	038H
	DB	07dH
	DB	039H
	DB	075H
	DB	038H
	DB	075H
	DB	038H
	DB	075H
	DB	038H
	DB	075H
	DB	038H
	DB	075H
	DB	039H
	DB	07dH
	DB	038H
	DB	075H
	DB	038H
	DB	075H
	DB	018H
	DB	075H
	DB	038H
	DB	07dH
	DB	038H
	DB	07dH
	DB	058H
	DB	075H
	DB	059H
	DB	07dH
	DB	059H
	DB	07dH
	DB	079H
	DB	07dH
	DB	079H
	DB	085H
	DB	079H
	DB	085H
	DB	079H
	DB	085H
	DB	079H
	DB	085H
	DB	079H
	DB	085H
	DB	079H
	DB	085H
	DB	078H
	DB	085H
	DB	059H
	DB	085H
	DB	059H
	DB	085H
	DB	058H
	DB	07dH
	DB	059H
	DB	085H
	DB	059H
	DB	085H
	DB	059H
	DB	085H
	DB	059H
	DB	085H
	DB	079H
	DB	085H
	DB	079H
	DB	085H
	DB	079H
	DB	085H
	DB	079H
	DB	085H
	DB	079H
	DB	085H
	DB	079H
	DB	085H
	DB	079H
	DB	085H
	DB	059H
	DB	085H
	DB	059H
	DB	085H
	DB	059H
	DB	085H
	DB	059H
	DB	085H
	DB	059H
	DB	07dH
	DB	079H
	DB	085H
	DB	059H
	DB	085H
	DB	078H
	DB	085H
	DB	059H
	DB	085H
	DB	059H
	DB	085H
	DB	079H
	DB	085H
	DB	079H
	DB	08dH
	DB	079H
	DB	08dH
	DB	079H
	DB	08dH
	DB	099H
	DB	08dH
	DB	099H
	DB	08dH
	DB	099H
	DB	095H
	DB	099H
	DB	095H
	DB	0baH
	DB	095H
	DB	0b9H
	DB	095H
	DB	0daH
	DB	095H
	DB	0daH
	DB	09dH
	DB	0daH
	DB	09dH
	DB	0daH
	DB	09dH
	DB	0faH
	DB	09dH
	DB	0faH
	DB	0a5H
	DB	01bH
	DB	0a6H
	DB	01aH
	DB	0aeH
	DB	01bH
	DB	0a6H
	DB	01aH
	DB	0a6H
	DB	01bH
	DB	0aeH
	DB	01bH
	DB	0aeH
	DB	01aH
	DB	0aeH
	DB	01aH
	DB	0aeH
	DB	01bH
	DB	0aeH
	DB	03bH
	DB	0aeH
	DB	01bH
	DB	0aeH
	DB	01aH
	DB	0aeH
	DB	03bH
	DB	0b6H
	DB	03bH
	DB	0b6H
	DB	03bH
	DB	0aeH
	DB	03bH
	DB	0aeH
	DB	01aH
	DB	0aeH
	DB	03bH
	DB	0b6H
	DB	03bH
	DB	0b6H
	DB	05bH
	DB	0beH
	DB	07bH
	DB	0beH
	DB	05bH
	DB	0beH
	DB	07bH
	DB	0beH
	DB	05bH
	DB	0beH
	DB	07bH
	DB	0beH
	DB	07bH
	DB	0beH
	DB	07cH
	DB	0beH
	DB	07bH
	DB	0beH
	DB	07cH
	DB	0beH
	DB	07bH
	DB	0beH
	DB	07bH
	DB	0beH
	DB	07bH
	DB	0beH
	DB	07cH
	DB	0beH
	DB	07bH
	DB	0beH
	DB	07bH
	DB	0beH
	DB	05bH
	DB	0beH
	DB	03bH
	DB	0b6H
	DB	03bH
	DB	0b6H
	DB	05bH
	DB	0b6H
	DB	05bH
	DB	0beH
	DB	05aH
	DB	0b6H
	DB	05bH
	DB	0b6H
	DB	03bH
	DB	0b6H
	DB	05bH
	DB	0b6H
	DB	05bH
	DB	0beH
	DB	07bH
	DB	0beH
	DB	07bH
	DB	0beH
	DB	09cH
	DB	0c6H
	DB	09cH
	DB	0ceH
	DB	0bcH
	DB	0ceH
	DB	0bcH
	DB	0ceH
	DB	09cH
	DB	0c6H
	DB	09cH
	DB	0c6H
	DB	09cH
	DB	0c6H
	DB	09cH
	DB	0c6H
	DB	09cH
	DB	0c6H
	DB	0bcH
	DB	0c6H
	DB	0dcH
	DB	0c6H
	DB	0bcH
	DB	0c6H
	DB	0dcH
	DB	0ceH
	DB	0ddH
	DB	0ceH
	DB	0fdH
	DB	0d6H
	DB	01dH
	DB	0dfH
	DB	01dH
	DB	0d7H
	DB	0ddH
	DB	0d6H
	DB	0dcH
	DB	0ceH
	DB	0bcH
	DB	0ceH
	DB	09cH
	DB	0c6H
	DB	09cH
	DB	0c6H
	DB	09cH
	DB	0c6H
	DB	09cH
	DB	0c6H
	DB	09cH
	DB	0c6H
	DB	09cH
	DB	0c6H
	DB	09cH
	DB	0c6H
	DB	0bcH
	DB	0c6H
	DB	0bcH
	DB	0ceH
	DB	0bcH
	DB	0ceH
	DB	097H
	DB	054H
	DB	097H
	DB	04cH
	DB	097H
	DB	054H
	DB	097H
	DB	054H
	DB	097H
	DB	04cH
	DB	097H
	DB	04cH
	DB	097H
	DB	04cH
	DB	097H
	DB	04cH
	DB	097H
	DB	054H
	DB	097H
	DB	054H
	DB	097H
	DB	04cH
	DB	097H
	DB	04cH
	DB	097H
	DB	04cH
	DB	097H
	DB	054H
	DB	097H
	DB	054H
	DB	097H
	DB	054H
	DB	097H
	DB	054H
	DB	0b8H
	DB	054H
	DB	0b8H
	DB	054H
	DB	097H
	DB	054H
	DB	0b7H
	DB	054H
	DB	0b7H
	DB	054H
	DB	0b8H
	DB	054H
	DB	0b7H
	DB	054H
	DB	0b7H
	DB	05cH
	DB	0b8H
	DB	05cH
	DB	0d8H
	DB	054H
	DB	0d8H
	DB	05cH
	DB	0d8H
	DB	05cH
	DB	097H
	DB	054H
	DB	0b8H
	DB	054H
	DB	098H
	DB	054H
	DB	0b7H
	DB	054H
	DB	0b8H
	DB	054H
	DB	0b8H
	DB	054H
	DB	0b7H
	DB	054H
	DB	0b8H
	DB	054H
	DB	0b8H
	DB	05cH
	DB	0b7H
	DB	054H
	DB	0b8H
	DB	054H
	DB	0b8H
	DB	05cH
	DB	0d8H
	DB	05cH
	DB	0d8H
	DB	05cH
	DB	0d8H
	DB	05cH
	DB	0d8H
	DB	05cH
	DB	0d8H
	DB	05cH
	DB	0b7H
	DB	05cH
	DB	0d8H
	DB	05cH
	DB	0b8H
	DB	05cH
	DB	0d7H
	DB	05cH
	DB	0b8H
	DB	05cH
	DB	0b8H
	DB	05cH
	DB	0b7H
	DB	05cH
	DB	0d7H
	DB	05cH
	DB	0d8H
	DB	05cH
	DB	0d7H
	DB	05cH
	DB	0b8H
	DB	05cH
	DB	0b8H
	DB	05cH
	DB	0d8H
	DB	05cH
	DB	0b8H
	DB	05cH
	DB	0b8H
	DB	05cH
	DB	0d7H
	DB	05cH
	DB	0d8H
	DB	05cH
	DB	0b8H
	DB	05cH
	DB	0d8H
	DB	05cH
	DB	0d7H
	DB	05cH
	DB	0d8H
	DB	064H
	DB	0f8H
	DB	064H
	DB	0d8H
	DB	064H
	DB	0f8H
	DB	064H
	DB	0f8H
	DB	064H
	DB	0f8H
	DB	064H
	DB	0f8H
	DB	064H
	DB	0f8H
	DB	064H
	DB	0f8H
	DB	064H
	DB	0f8H
	DB	064H
	DB	0f8H
	DB	06cH
	DB	018H
	DB	06dH
	DB	019H
	DB	06dH
	DB	0f9H
	DB	06cH
	DB	018H
	DB	06dH
	DB	0f8H
	DB	06cH
	DB	0f8H
	DB	064H
	DB	0f9H
	DB	064H
	DB	0f8H
	DB	064H
	DB	0f8H
	DB	06cH
	DB	019H
	DB	06dH
	DB	018H
	DB	06dH
	DB	018H
	DB	06dH
	DB	039H
	DB	06dH
	DB	038H
	DB	075H
	DB	018H
	DB	075H
	DB	019H
	DB	06dH
	DB	018H
	DB	075H
	DB	018H
	DB	075H
	DB	039H
	DB	075H
	DB	038H
	DB	075H
	DB	038H
	DB	075H
	DB	059H
	DB	07dH
	DB	039H
	DB	075H
	DB	058H
	DB	075H
	DB	059H
	DB	07dH
	DB	059H
	DB	07dH
	DB	059H
	DB	07dH
	DB	039H
	DB	07dH
	DB	058H
	DB	07dH
	DB	038H
	DB	07dH
	DB	059H
	DB	07dH
	DB	039H
	DB	07dH
	DB	039H
	DB	075H
	DB	039H
	DB	075H
	DB	038H
	DB	07dH
	DB	039H
	DB	075H
	DB	039H
	DB	07dH
	DB	058H
	DB	07dH
	DB	058H
	DB	07dH
	DB	079H
	DB	07dH
	DB	079H
	DB	085H
	DB	079H
	DB	085H
	DB	079H
	DB	085H
	DB	059H
	DB	085H
	DB	059H
	DB	085H
	DB	079H
	DB	07dH
	DB	079H
	DB	085H
	DB	079H
	DB	085H
	DB	079H
	DB	085H
	DB	079H
	DB	085H
	DB	079H
	DB	085H
	DB	079H
	DB	085H
	DB	079H
	DB	085H
	DB	079H
	DB	085H
	DB	079H
	DB	085H
	DB	079H
	DB	085H
	DB	079H
	DB	08dH
	DB	079H
	DB	08dH
	DB	079H
	DB	08dH
	DB	079H
	DB	08dH
	DB	079H
	DB	085H
	DB	059H
	DB	085H
	DB	079H
	DB	085H
	DB	058H
	DB	085H
	DB	059H
	DB	085H
	DB	079H
	DB	085H
	DB	079H
	DB	085H
	DB	079H
	DB	085H
	DB	079H
	DB	08dH
	DB	079H
	DB	085H
	DB	079H
	DB	085H
	DB	099H
	DB	08dH
	DB	099H
	DB	08dH
	DB	099H
	DB	08dH
	DB	099H
	DB	08dH
	DB	0baH
	DB	095H
	DB	0baH
	DB	095H
	DB	0baH
	DB	095H
	DB	0baH
	DB	095H
	DB	0daH
	DB	095H
	DB	0daH
	DB	09dH
	DB	0daH
	DB	09dH
	DB	0daH
	DB	09dH
	DB	0faH
	DB	0a5H
	DB	01aH
	DB	0a6H
	DB	01bH
	DB	0a6H
	DB	01bH
	DB	0a6H
	DB	01bH
	DB	0a6H
	DB	01aH
	DB	0aeH
	DB	01bH
	DB	0a6H
	DB	01bH
	DB	0aeH
	DB	0faH
	DB	0a5H
	DB	01aH
	DB	0a6H
	DB	01bH
	DB	0aeH
	DB	03aH
	DB	0aeH
	DB	01bH
	DB	0aeH
	DB	03bH
	DB	0aeH
	DB	01aH
	DB	0aeH
	DB	03bH
	DB	0aeH
	DB	01bH
	DB	0aeH
	DB	01aH
	DB	0aeH
	DB	01aH
	DB	0aeH
	DB	03bH
	DB	0b6H
	DB	05bH
	DB	0b6H
	DB	07bH
	DB	0beH
	DB	05bH
	DB	0beH
	DB	05bH
	DB	0b6H
	DB	05bH
	DB	0beH
	DB	05bH
	DB	0beH
	DB	07bH
	DB	0beH
	DB	07cH
	DB	0beH
	DB	07cH
	DB	0beH
	DB	07bH
	DB	0beH
	DB	05bH
	DB	0beH
	DB	05bH
	DB	0b6H
	DB	05bH
	DB	0beH
	DB	05bH
	DB	0beH
	DB	05bH
	DB	0beH
	DB	05bH
	DB	0beH
	DB	05bH
	DB	0b6H
	DB	03bH
	DB	0b6H
	DB	05bH
	DB	0b6H
	DB	03bH
	DB	0b6H
	DB	03aH
	DB	0b6H
	DB	03aH
	DB	0b6H
	DB	03aH
	DB	0b6H
	DB	03bH
	DB	0b6H
	DB	05bH
	DB	0b6H
	DB	03bH
	DB	0beH
	DB	05bH
	DB	0beH
	DB	05bH
	DB	0beH
	DB	07bH
	DB	0beH
	DB	07cH
	DB	0c6H
	DB	09cH
	DB	0c6H
	DB	0bcH
	DB	0ceH
	DB	09cH
	DB	0c6H
	DB	09cH
	DB	0c6H
	DB	09bH
	DB	0c6H
	DB	09cH
	DB	0c6H
	DB	09bH
	DB	0c6H
	DB	07bH
	DB	0beH
	DB	09cH
	DB	0beH
	DB	0bcH
	DB	0c6H
	DB	0bdH
	DB	0c6H
	DB	0bcH
	DB	0c6H
	DB	0dcH
	DB	0ceH
	DB	0dcH
	DB	0ceH
	DB	0fdH
	DB	0d6H
	DB	01dH
	DB	0d7H
	DB	0fdH
	DB	0d6H
	DB	0dcH
	DB	0ceH
	DB	0bcH
	DB	0c6H
	DB	09cH
	DB	0c6H
	DB	09cH
	DB	0c6H
	DB	09cH
	DB	0c6H
	DB	09cH
	DB	0c6H
	DB	09bH
	DB	0c6H
	DB	07bH
	DB	0c6H
	DB	09bH
	DB	0c6H
	DB	07cH
	DB	0c6H
	DB	09cH
	DB	0c6H
	DB	0bcH
	DB	0c6H
	DB	0bcH
	DB	0c6H
	DB	097H
	DB	04cH
	DB	098H
	DB	04cH
	DB	097H
	DB	054H
	DB	097H
	DB	054H
	DB	098H
	DB	04cH
	DB	098H
	DB	054H
	DB	097H
	DB	04cH
	DB	097H
	DB	054H
	DB	097H
	DB	054H
	DB	097H
	DB	04cH
	DB	097H
	DB	054H
	DB	097H
	DB	054H
	DB	098H
	DB	054H
	DB	097H
	DB	054H
	DB	0b8H
	DB	054H
	DB	0b8H
	DB	054H
	DB	0b7H
	DB	054H
	DB	0b8H
	DB	054H
	DB	0b8H
	DB	054H
	DB	0b7H
	DB	054H
	DB	0b8H
	DB	054H
	DB	0b8H
	DB	054H
	DB	0b7H
	DB	05cH
	DB	0d8H
	DB	05cH
	DB	0b8H
	DB	05cH
	DB	0d7H
	DB	054H
	DB	0d8H
	DB	05cH
	DB	0d8H
	DB	05cH
	DB	0d8H
	DB	05cH
	DB	0d8H
	DB	05cH
	DB	0b8H
	DB	054H
	DB	0b7H
	DB	054H
	DB	0d8H
	DB	05cH
	DB	0d8H
	DB	05cH
	DB	0d8H
	DB	05cH
	DB	0d8H
	DB	05cH
	DB	0b8H
	DB	05cH
	DB	0d8H
	DB	05cH
	DB	0d8H
	DB	05cH
	DB	0d8H
	DB	05cH
	DB	0d8H
	DB	05cH
	DB	0d7H
	DB	05cH
	DB	0d8H
	DB	05cH
	DB	0d8H
	DB	05cH
	DB	0b7H
	DB	05cH
	DB	0d8H
	DB	05cH
	DB	0d8H
	DB	05cH
	DB	0d8H
	DB	05cH
	DB	0d8H
	DB	05cH
	DB	0d8H
	DB	05cH
	DB	0d7H
	DB	05cH
	DB	0b8H
	DB	05cH
	DB	0d8H
	DB	05cH
	DB	0d8H
	DB	05cH
	DB	0d8H
	DB	064H
	DB	0d7H
	DB	064H
	DB	0d8H
	DB	05cH
	DB	0d8H
	DB	05cH
	DB	0d7H
	DB	05cH
	DB	0d7H
	DB	05cH
	DB	0d8H
	DB	05cH
	DB	0d8H
	DB	05cH
	DB	0d8H
	DB	064H
	DB	0d8H
	DB	064H
	DB	0d8H
	DB	05cH
	DB	0d8H
	DB	064H
	DB	0f8H
	DB	064H
	DB	0d8H
	DB	064H
	DB	0f8H
	DB	064H
	DB	0f8H
	DB	064H
	DB	0f8H
	DB	064H
	DB	0f8H
	DB	064H
	DB	0d8H
	DB	05cH
	DB	0d8H
	DB	05cH
	DB	0d8H
	DB	064H
	DB	0d8H
	DB	064H
	DB	0f8H
	DB	064H
	DB	0f8H
	DB	064H
	DB	0f8H
	DB	064H
	DB	0f8H
	DB	064H
	DB	0f8H
	DB	064H
	DB	0f8H
	DB	064H
	DB	0f8H
	DB	064H
	DB	0d8H
	DB	064H
	DB	0f8H
	DB	064H
	DB	0f9H
	DB	064H
	DB	0d8H
	DB	064H
	DB	0f8H
	DB	06cH
	DB	018H
	DB	06dH
	DB	0f8H
	DB	06cH
	DB	018H
	DB	06dH
	DB	019H
	DB	06dH
	DB	038H
	DB	075H
	DB	039H
	DB	075H
	DB	038H
	DB	075H
	DB	019H
	DB	06dH
	DB	018H
	DB	06dH
	DB	038H
	DB	075H
	DB	038H
	DB	075H
	DB	038H
	DB	075H
	DB	039H
	DB	075H
	DB	038H
	DB	075H
	DB	059H
	DB	07dH
	DB	039H
	DB	07dH
	DB	059H
	DB	075H
	DB	059H
	DB	07dH
	DB	059H
	DB	07dH
	DB	038H
	DB	07dH
	DB	059H
	DB	07dH
	DB	059H
	DB	07dH
	DB	059H
	DB	07dH
	DB	059H
	DB	07dH
	DB	059H
	DB	07dH
	DB	058H
	DB	07dH
	DB	059H
	DB	07dH
	DB	079H
	DB	085H
	DB	059H
	DB	085H
	DB	059H
	DB	07dH
	DB	079H
	DB	085H
	DB	079H
	DB	085H
	DB	079H
	DB	085H
	DB	079H
	DB	085H
	DB	079H
	DB	085H
	DB	079H
	DB	085H
	DB	079H
	DB	085H
	DB	079H
	DB	085H
	DB	079H
	DB	085H
	DB	099H
	DB	085H
	DB	099H
	DB	08dH
	DB	099H
	DB	08dH
	DB	079H
	DB	085H
	DB	099H
	DB	08dH
	DB	099H
	DB	08dH
	DB	099H
	DB	08dH
	DB	099H
	DB	08dH
	DB	099H
	DB	085H
	DB	079H
	DB	085H
	DB	099H
	DB	08dH
	DB	099H
	DB	08dH
	DB	079H
	DB	085H
	DB	079H
	DB	085H
	DB	079H
	DB	08dH
	DB	079H
	DB	08dH
	DB	079H
	DB	08dH
	DB	099H
	DB	08dH
	DB	099H
	DB	08dH
	DB	099H
	DB	08dH
	DB	099H
	DB	08dH
	DB	099H
	DB	08dH
	DB	099H
	DB	08dH
	DB	0baH
	DB	08dH
	DB	09aH
	DB	095H
	DB	0b9H
	DB	095H
	DB	0baH
	DB	095H
	DB	0baH
	DB	095H
	DB	0daH
	DB	09dH
	DB	0daH
	DB	09dH
	DB	0faH
	DB	09dH
	DB	0faH
	DB	09dH
	DB	0faH
	DB	0a5H
	DB	01aH
	DB	0a6H
	DB	0faH
	DB	0a5H
	DB	01bH
	DB	0a6H
	DB	0faH
	DB	0a5H
	DB	0faH
	DB	0a5H
	DB	01aH
	DB	0a6H
	DB	0faH
	DB	0a5H
	DB	0faH
	DB	0a5H
	DB	01aH
	DB	0a6H
	DB	0fbH
	DB	0a5H
	DB	01aH
	DB	0aeH
	DB	01aH
	DB	0aeH
	DB	01bH
	DB	0aeH
	DB	01aH
	DB	0aeH
	DB	01aH
	DB	0aeH
	DB	01bH
	DB	0aeH
	DB	01bH
	DB	0aeH
	DB	03bH
	DB	0b6H
	DB	05bH
	DB	0beH
	DB	05bH
	DB	0beH
	DB	05bH
	DB	0b6H
	DB	03bH
	DB	0b6H
	DB	05bH
	DB	0b6H
	DB	05bH
	DB	0b6H
	DB	07bH
	DB	0beH
	DB	07bH
	DB	0beH
	DB	05bH
	DB	0beH
	DB	07bH
	DB	0beH
	DB	05bH
	DB	0beH
	DB	05bH
	DB	0b6H
	DB	03bH
	DB	0b6H
	DB	03bH
	DB	0beH
	DB	05bH
	DB	0beH
	DB	05bH
	DB	0b6H
	DB	05bH
	DB	0b6H
	DB	03bH
	DB	0b6H
	DB	03bH
	DB	0b6H
	DB	03bH
	DB	0b6H
	DB	01aH
	DB	0b6H
	DB	03aH
	DB	0b6H
	DB	01bH
	DB	0b6H
	DB	01aH
	DB	0b6H
	DB	01bH
	DB	0b6H
	DB	03bH
	DB	0b6H
	DB	03bH
	DB	0beH
	DB	05bH
	DB	0beH
	DB	05bH
	DB	0beH
	DB	07cH
	DB	0beH
	DB	07cH
	DB	0c6H
	DB	09cH
	DB	0c6H
	DB	09cH
	DB	0c6H
	DB	07bH
	DB	0c6H
	DB	07bH
	DB	0c6H
	DB	07bH
	DB	0beH
	DB	07bH
	DB	0c6H
	DB	07bH
	DB	0beH
	DB	07bH
	DB	0beH
	DB	09cH
	DB	0c6H
	DB	09cH
	DB	0c6H
	DB	09cH
	DB	0c6H
	DB	0bcH
	DB	0c6H
	DB	0bcH
	DB	0c6H
	DB	0bcH
	DB	0ceH
	DB	0ddH
	DB	0ceH
	DB	0fdH
	DB	0d6H
	DB	0fdH
	DB	0d6H
	DB	0dcH
	DB	0ceH
	DB	0bcH
	DB	0c6H
	DB	09cH
	DB	0c6H
	DB	09cH
	DB	0c6H
	DB	09cH
	DB	0c6H
	DB	07bH
	DB	0beH
	DB	07bH
	DB	0c6H
	DB	07cH
	DB	0beH
	DB	07cH
	DB	0c6H
	DB	07bH
	DB	0beH
	DB	07bH
	DB	0c6H
	DB	07cH
	DB	0beH
	DB	09cH
	DB	0c6H
	DB	09cH
	DB	0c6H
	DB	098H
	DB	054H
	DB	098H
	DB	054H
	DB	098H
	DB	054H
	DB	098H
	DB	054H
	DB	097H
	DB	054H
	DB	098H
	DB	054H
	DB	098H
	DB	054H
	DB	098H
	DB	054H
	DB	098H
	DB	054H
	DB	098H
	DB	054H
	DB	097H
	DB	054H
	DB	0b8H
	DB	054H
	DB	0b8H
	DB	054H
	DB	0b7H
	DB	054H
	DB	0b8H
	DB	054H
	DB	0b8H
	DB	054H
	DB	0b7H
	DB	054H
	DB	0b8H
	DB	054H
	DB	0b8H
	DB	05cH
	DB	0b7H
	DB	05cH
	DB	0b8H
	DB	05cH
	DB	0d8H
	DB	05cH
	DB	0d8H
	DB	05cH
	DB	0b8H
	DB	054H
	DB	0b7H
	DB	054H
	DB	0b7H
	DB	054H
	DB	0b8H
	DB	05cH
	DB	0d8H
	DB	05cH
	DB	0d8H
	DB	05cH
	DB	0f8H
	DB	05cH
	DB	0d8H
	DB	05cH
	DB	0d8H
	DB	05cH
	DB	0f8H
	DB	05cH
	DB	0d8H
	DB	05cH
	DB	0b7H
	DB	05cH
	DB	0d8H
	DB	05cH
	DB	0f8H
	DB	05cH
	DB	0d8H
	DB	05cH
	DB	0f8H
	DB	05cH
	DB	0f8H
	DB	064H
	DB	0f8H
	DB	05cH
	DB	0d8H
	DB	05cH
	DB	0d8H
	DB	05cH
	DB	0b7H
	DB	054H
	DB	0b7H
	DB	05cH
	DB	0d8H
	DB	05cH
	DB	0d8H
	DB	05cH
	DB	0d7H
	DB	05cH
	DB	0d8H
	DB	05cH
	DB	0d8H
	DB	05cH
	DB	0b7H
	DB	05cH
	DB	0b7H
	DB	054H
	DB	0d8H
	DB	05cH
	DB	0d8H
	DB	05cH
	DB	0d8H
	DB	05cH
	DB	0f8H
	DB	064H
	DB	0f8H
	DB	064H
	DB	0f8H
	DB	064H
	DB	0f8H
	DB	064H
	DB	0d8H
	DB	05cH
	DB	0d8H
	DB	05cH
	DB	0d8H
	DB	064H
	DB	0d7H
	DB	064H
	DB	0d8H
	DB	05cH
	DB	0d8H
	DB	05cH
	DB	0d8H
	DB	05cH
	DB	0d7H
	DB	064H
	DB	0d8H
	DB	05cH
	DB	0f8H
	DB	05cH
	DB	0d8H
	DB	064H
	DB	0d8H
	DB	064H
	DB	0d8H
	DB	05cH
	DB	0d8H
	DB	05cH
	DB	0d8H
	DB	05cH
	DB	0d8H
	DB	05cH
	DB	0f8H
	DB	05cH
	DB	0f8H
	DB	064H
	DB	0d8H
	DB	064H
	DB	0f8H
	DB	064H
	DB	0d8H
	DB	064H
	DB	0d8H
	DB	064H
	DB	0f9H
	DB	064H
	DB	0f9H
	DB	064H
	DB	0f8H
	DB	064H
	DB	0f8H
	DB	06cH
	DB	0f8H
	DB	06cH
	DB	019H
	DB	065H
	DB	018H
	DB	06dH
	DB	0f9H
	DB	06cH
	DB	018H
	DB	06dH
	DB	019H
	DB	06dH
	DB	039H
	DB	075H
	DB	039H
	DB	075H
	DB	038H
	DB	06dH
	DB	038H
	DB	06dH
	DB	019H
	DB	075H
	DB	019H
	DB	075H
	DB	019H
	DB	06dH
	DB	038H
	DB	075H
	DB	039H
	DB	075H
	DB	038H
	DB	075H
	DB	038H
	DB	075H
	DB	038H
	DB	075H
	DB	039H
	DB	07dH
	DB	038H
	DB	075H
	DB	059H
	DB	07dH
	DB	059H
	DB	07dH
	DB	059H
	DB	07dH
	DB	059H
	DB	07dH
	DB	058H
	DB	07dH
	DB	059H
	DB	07dH
	DB	059H
	DB	07dH
	DB	058H
	DB	07dH
	DB	059H
	DB	07dH
	DB	059H
	DB	07dH
	DB	059H
	DB	085H
	DB	059H
	DB	07dH
	DB	079H
	DB	085H
	DB	079H
	DB	07dH
	DB	079H
	DB	085H
	DB	079H
	DB	085H
	DB	079H
	DB	085H
	DB	079H
	DB	085H
	DB	099H
	DB	085H
	DB	079H
	DB	085H
	DB	079H
	DB	085H
	DB	099H
	DB	085H
	DB	079H
	DB	085H
	DB	099H
	DB	08dH
	DB	099H
	DB	085H
	DB	099H
	DB	08dH
	DB	099H
	DB	08dH
	DB	079H
	DB	08dH
	DB	079H
	DB	085H
	DB	099H
	DB	08dH
	DB	079H
	DB	085H
	DB	099H
	DB	08dH
	DB	099H
	DB	08dH
	DB	099H
	DB	08dH
	DB	099H
	DB	08dH
	DB	099H
	DB	085H
	DB	099H
	DB	08dH
	DB	079H
	DB	085H
	DB	079H
	DB	085H
	DB	099H
	DB	085H
	DB	09aH
	DB	08dH
	DB	099H
	DB	08dH
	DB	09aH
	DB	08dH
	DB	09aH
	DB	08dH
	DB	0baH
	DB	095H
	DB	09aH
	DB	08dH
	DB	0baH
	DB	095H
	DB	0daH
	DB	095H
	DB	0daH
	DB	095H
	DB	0daH
	DB	09dH
	DB	0faH
	DB	09dH
	DB	0faH
	DB	09dH
	DB	0faH
	DB	09dH
	DB	0faH
	DB	0a5H
	DB	0fbH
	DB	0a5H
	DB	0faH
	DB	0a5H
	DB	0fbH
	DB	0a5H
	DB	0faH
	DB	09dH
	DB	0faH
	DB	0a5H
	DB	0faH
	DB	0a5H
	DB	0faH
	DB	0a5H
	DB	0fbH
	DB	0a5H
	DB	0faH
	DB	0a5H
	DB	0fbH
	DB	0a5H
	DB	0faH
	DB	0a5H
	DB	01aH
	DB	0a6H
	DB	01bH
	DB	0a6H
	DB	01aH
	DB	0a6H
	DB	01aH
	DB	0aeH
	DB	01bH
	DB	0aeH
	DB	03bH
	DB	0aeH
	DB	03bH
	DB	0b6H
	DB	05bH
	DB	0b6H
	DB	03bH
	DB	0b6H
	DB	03bH
	DB	0b6H
	DB	05bH
	DB	0b6H
	DB	05bH
	DB	0b6H
	DB	05bH
	DB	0beH
	DB	05bH
	DB	0beH
	DB	05bH
	DB	0beH
	DB	05bH
	DB	0beH
	DB	07bH
	DB	0beH
	DB	05bH
	DB	0b6H
	DB	05bH
	DB	0beH
	DB	03bH
	DB	0b6H
	DB	05bH
	DB	0beH
	DB	05bH
	DB	0beH
	DB	05bH
	DB	0b6H
	DB	03bH
	DB	0b6H
	DB	03bH
	DB	0b6H
	DB	01aH
	DB	0b6H
	DB	01bH
	DB	0b6H
	DB	01aH
	DB	0aeH
	DB	01aH
	DB	0aeH
	DB	01bH
	DB	0b6H
	DB	01bH
	DB	0b6H
	DB	03bH
	DB	0b6H
	DB	03aH
	DB	0aeH
	DB	03bH
	DB	0b6H
	DB	05bH
	DB	0beH
	DB	05bH
	DB	0b6H
	DB	03bH
	DB	0b6H
	DB	05bH
	DB	0beH
	DB	07bH
	DB	0c6H
	DB	09cH
	DB	0c6H
	DB	07bH
	DB	0c6H
	DB	07bH
	DB	0beH
	DB	07bH
	DB	0beH
	DB	07bH
	DB	0beH
	DB	07cH
	DB	0beH
	DB	07bH
	DB	0beH
	DB	07bH
	DB	0beH
	DB	07bH
	DB	0beH
	DB	09cH
	DB	0beH
	DB	09cH
	DB	0c6H
	DB	0bcH
	DB	0c6H
	DB	0bcH
	DB	0c6H
	DB	0bcH
	DB	0ceH
	DB	0fdH
	DB	0ceH
	DB	0fdH
	DB	0d6H
	DB	0dcH
	DB	0ceH
	DB	0bcH
	DB	0ceH
	DB	09cH
	DB	0c6H
	DB	07cH
	DB	0c6H
	DB	09bH
	DB	0c6H
	DB	07bH
	DB	0beH
	DB	07bH
	DB	0beH
	DB	07bH
	DB	0beH
	DB	07bH
	DB	0beH
	DB	07bH
	DB	0beH
	DB	07bH
	DB	0beH
	DB	07bH
	DB	0beH
	DB	07bH
	DB	0beH
	DB	09cH
	DB	0c6H
	DB	09cH
	DB	0c6H
	DB	0b7H
	DB	054H
	DB	097H
	DB	054H
	DB	097H
	DB	054H
	DB	098H
	DB	04cH
	DB	097H
	DB	054H
	DB	0b7H
	DB	054H
	DB	098H
	DB	054H
	DB	0b7H
	DB	054H
	DB	0b8H
	DB	054H
	DB	098H
	DB	054H
	DB	0b7H
	DB	054H
	DB	0b8H
	DB	054H
	DB	0b7H
	DB	054H
	DB	0b7H
	DB	054H
	DB	0d8H
	DB	05cH
	DB	0d8H
	DB	05cH
	DB	0d8H
	DB	054H
	DB	0d8H
	DB	054H
	DB	0d7H
	DB	05cH
	DB	0d8H
	DB	05cH
	DB	0d8H
	DB	05cH
	DB	0d8H
	DB	05cH
	DB	0d8H
	DB	05cH
	DB	0d8H
	DB	054H
	DB	0b8H
	DB	054H
	DB	0b7H
	DB	054H
	DB	0d8H
	DB	05cH
	DB	0d8H
	DB	05cH
	DB	0f8H
	DB	05cH
	DB	0d8H
	DB	05cH
	DB	0f8H
	DB	05cH
	DB	018H
	DB	065H
	DB	0f8H
	DB	064H
	DB	0d8H
	DB	05cH
	DB	0b8H
	DB	054H
	DB	0d8H
	DB	05cH
	DB	0f8H
	DB	05cH
	DB	0d8H
	DB	05cH
	DB	0b7H
	DB	05cH
	DB	0d8H
	DB	05cH
	DB	0d8H
	DB	05cH
	DB	0d7H
	DB	05cH
	DB	0d8H
	DB	05cH
	DB	0d8H
	DB	054H
	DB	0d8H
	DB	05cH
	DB	0f8H
	DB	05cH
	DB	0d8H
	DB	05cH
	DB	0d7H
	DB	05cH
	DB	0d7H
	DB	05cH
	DB	0b8H
	DB	05cH
	DB	097H
	DB	054H
	DB	0b7H
	DB	054H
	DB	0d8H
	DB	05cH
	DB	0d8H
	DB	05cH
	DB	0d8H
	DB	05cH
	DB	0d8H
	DB	05cH
	DB	0d8H
	DB	064H
	DB	0d8H
	DB	05cH
	DB	0f8H
	DB	064H
	DB	0d8H
	DB	064H
	DB	0d8H
	DB	064H
	DB	0f8H
	DB	064H
	DB	0f8H
	DB	064H
	DB	0d8H
	DB	064H
	DB	0f8H
	DB	064H
	DB	0d8H
	DB	064H
	DB	0d8H
	DB	05cH
	DB	0d8H
	DB	064H
	DB	0d8H
	DB	064H
	DB	0d8H
	DB	05cH
	DB	0d8H
	DB	064H
	DB	0d8H
	DB	064H
	DB	0b8H
	DB	05cH
	DB	0d8H
	DB	064H
	DB	0f8H
	DB	064H
	DB	0f9H
	DB	064H
	DB	0f8H
	DB	064H
	DB	0d8H
	DB	064H
	DB	0d8H
	DB	064H
	DB	0f8H
	DB	064H
	DB	0f8H
	DB	064H
	DB	0f8H
	DB	064H
	DB	0f8H
	DB	064H
	DB	0f9H
	DB	064H
	DB	0f8H
	DB	064H
	DB	0f8H
	DB	06cH
	DB	0f8H
	DB	064H
	DB	0f8H
	DB	06cH
	DB	018H
	DB	06dH
	DB	039H
	DB	06dH
	DB	039H
	DB	06dH
	DB	038H
	DB	075H
	DB	039H
	DB	075H
	DB	039H
	DB	075H
	DB	038H
	DB	075H
	DB	039H
	DB	075H
	DB	018H
	DB	06dH
	DB	038H
	DB	075H
	DB	019H
	DB	06dH
	DB	039H
	DB	075H
	DB	039H
	DB	075H
	DB	038H
	DB	075H
	DB	059H
	DB	07dH
	DB	059H
	DB	07dH
	DB	059H
	DB	07dH
	DB	058H
	DB	075H
	DB	059H
	DB	07dH
	DB	059H
	DB	07dH
	DB	059H
	DB	07dH
	DB	058H
	DB	07dH
	DB	059H
	DB	07dH
	DB	059H
	DB	07dH
	DB	059H
	DB	07dH
	DB	059H
	DB	07dH
	DB	059H
	DB	07dH
	DB	059H
	DB	07dH
	DB	059H
	DB	085H
	DB	079H
	DB	085H
	DB	079H
	DB	07dH
	DB	079H
	DB	085H
	DB	079H
	DB	085H
	DB	079H
	DB	085H
	DB	079H
	DB	085H
	DB	079H
	DB	085H
	DB	099H
	DB	085H
	DB	099H
	DB	08dH
	DB	099H
	DB	08dH
	DB	09aH
	DB	08dH
	DB	099H
	DB	08dH
	DB	099H
	DB	085H
	DB	099H
	DB	08dH
	DB	09aH
	DB	08dH
	DB	099H
	DB	08dH
	DB	099H
	DB	08dH
	DB	079H
	DB	085H
	DB	099H
	DB	08dH
	DB	079H
	DB	085H
	DB	099H
	DB	08dH
	DB	099H
	DB	08dH
	DB	099H
	DB	08dH
	DB	099H
	DB	08dH
	DB	079H
	DB	08dH
	DB	09aH
	DB	085H
	DB	099H
	DB	08dH
	DB	099H
	DB	08dH
	DB	09aH
	DB	08dH
	DB	09aH
	DB	08dH
	DB	0baH
	DB	095H
	DB	0baH
	DB	095H
	DB	0b9H
	DB	095H
	DB	0daH
	DB	095H
	DB	0daH
	DB	095H
	DB	0baH
	DB	095H
	DB	0daH
	DB	09dH
	DB	0faH
	DB	09dH
	DB	0daH
	DB	09dH
	DB	0daH
	DB	09dH
	DB	0daH
	DB	09dH
	DB	0daH
	DB	09dH
	DB	0faH
	DB	09dH
	DB	0faH
	DB	09dH
	DB	0daH
	DB	09dH
	DB	0faH
	DB	09dH
	DB	0faH
	DB	09dH
	DB	0fbH
	DB	09dH
	DB	0faH
	DB	0a5H
	DB	0fbH
	DB	0a5H
	DB	0faH
	DB	0a5H
	DB	0faH
	DB	0a5H
	DB	0fbH
	DB	0a5H
	DB	0faH
	DB	0a5H
	DB	01bH
	DB	0aeH
	DB	01bH
	DB	0aeH
	DB	03bH
	DB	0aeH
	DB	03bH
	DB	0b6H
	DB	03bH
	DB	0b6H
	DB	03bH
	DB	0b6H
	DB	03bH
	DB	0b6H
	DB	03aH
	DB	0b6H
	DB	03bH
	DB	0b6H
	DB	05bH
	DB	0beH
	DB	05bH
	DB	0beH
	DB	05bH
	DB	0beH
	DB	05bH
	DB	0b6H
	DB	05bH
	DB	0b6H
	DB	05bH
	DB	0b6H
	DB	03bH
	DB	0b6H
	DB	03aH
	DB	0b6H
	DB	03bH
	DB	0b6H
	DB	05bH
	DB	0b6H
	DB	05bH
	DB	0b6H
	DB	03bH
	DB	0b6H
	DB	03aH
	DB	0b6H
	DB	03aH
	DB	0b6H
	DB	01aH
	DB	0aeH
	DB	01bH
	DB	0aeH
	DB	01aH
	DB	0aeH
	DB	01bH
	DB	0aeH
	DB	01aH
	DB	0aeH
	DB	03aH
	DB	0aeH
	DB	03bH
	DB	0b6H
	DB	01bH
	DB	0aeH
	DB	03bH
	DB	0b6H
	DB	05bH
	DB	0b6H
	DB	03bH
	DB	0b6H
	DB	05bH
	DB	0b6H
	DB	05bH
	DB	0beH
	DB	07cH
	DB	0beH
	DB	07cH
	DB	0beH
	DB	07bH
	DB	0beH
	DB	07bH
	DB	0beH
	DB	07cH
	DB	0beH
	DB	05bH
	DB	0beH
	DB	05bH
	DB	0beH
	DB	05bH
	DB	0beH
	DB	05cH
	DB	0beH
	DB	07bH
	DB	0beH
	DB	07cH
	DB	0beH
	DB	07bH
	DB	0beH
	DB	09cH
	DB	0c6H
	DB	0bcH
	DB	0c6H
	DB	0bcH
	DB	0c6H
	DB	0dcH
	DB	0ceH
	DB	0dcH
	DB	0ceH
	DB	0dcH
	DB	0ceH
	DB	0bcH
	DB	0c6H
	DB	0bcH
	DB	0c6H
	DB	07cH
	DB	0beH
	DB	07bH
	DB	0beH
	DB	07cH
	DB	0beH
	DB	07bH
	DB	0beH
	DB	05bH
	DB	0beH
	DB	05bH
	DB	0beH
	DB	05bH
	DB	0beH
	DB	05bH
	DB	0beH
	DB	05bH
	DB	0beH
	DB	05bH
	DB	0beH
	DB	07bH
	DB	0beH
	DB	07bH
	DB	0c6H
	DB	07bH
	DB	0beH
	DB	0b8H
	DB	054H
	DB	0b8H
	DB	054H
	DB	0b8H
	DB	054H
	DB	0b8H
	DB	054H
	DB	0b8H
	DB	054H
	DB	0b8H
	DB	054H
	DB	0b8H
	DB	054H
	DB	0b7H
	DB	054H
	DB	0b8H
	DB	054H
	DB	0b7H
	DB	054H
	DB	0b8H
	DB	054H
	DB	0d8H
	DB	054H
	DB	0b8H
	DB	054H
	DB	0b8H
	DB	054H
	DB	0d8H
	DB	054H
	DB	0d8H
	DB	05cH
	DB	0d8H
	DB	05cH
	DB	0d8H
	DB	05cH
	DB	0d8H
	DB	05cH
	DB	0d8H
	DB	05cH
	DB	0f8H
	DB	05cH
	DB	0d8H
	DB	05cH
	DB	0d8H
	DB	05cH
	DB	0d8H
	DB	054H
	DB	0b8H
	DB	054H
	DB	0b8H
	DB	054H
	DB	0d8H
	DB	054H
	DB	0d8H
	DB	054H
	DB	0d8H
	DB	054H
	DB	0b8H
	DB	054H
	DB	0d8H
	DB	05cH
	DB	0d8H
	DB	05cH
	DB	0f8H
	DB	05cH
	DB	018H
	DB	065H
	DB	018H
	DB	065H
	DB	018H
	DB	065H
	DB	0f8H
	DB	064H
	DB	0d8H
	DB	05cH
	DB	0b8H
	DB	054H
	DB	0d8H
	DB	05cH
	DB	018H
	DB	065H
	DB	039H
	DB	06dH
	DB	039H
	DB	075H
	DB	018H
	DB	06dH
	DB	039H
	DB	06dH
	DB	059H
	DB	075H
	DB	039H
	DB	075H
	DB	038H
	DB	06dH
	DB	018H
	DB	065H
	DB	019H
	DB	06dH
	DB	039H
	DB	06dH
	DB	0b8H
	DB	05cH
	DB	0b8H
	DB	054H
	DB	0f8H
	DB	05cH
	DB	0d8H
	DB	05cH
	DB	0f8H
	DB	064H
	DB	0f8H
	DB	064H
	DB	0f8H
	DB	064H
	DB	0f8H
	DB	05cH
	DB	0f8H
	DB	064H
	DB	0f8H
	DB	064H
	DB	0f8H
	DB	05cH
	DB	0f8H
	DB	064H
	DB	0f8H
	DB	064H
	DB	0f8H
	DB	064H
	DB	0f8H
	DB	05cH
	DB	0f8H
	DB	064H
	DB	0f8H
	DB	05cH
	DB	0f8H
	DB	05cH
	DB	0d8H
	DB	05cH
	DB	0d8H
	DB	05cH
	DB	0d8H
	DB	05cH
	DB	0d8H
	DB	05cH
	DB	0d9H
	DB	05cH
	DB	0d8H
	DB	05cH
	DB	0d8H
	DB	05cH
	DB	0d8H
	DB	05cH
	DB	0d8H
	DB	05cH
	DB	0f9H
	DB	064H
	DB	0f9H
	DB	064H
	DB	0f8H
	DB	064H
	DB	0f8H
	DB	064H
	DB	0f8H
	DB	064H
	DB	0f8H
	DB	064H
	DB	0f9H
	DB	064H
	DB	019H
	DB	065H
	DB	019H
	DB	06dH
	DB	019H
	DB	06dH
	DB	018H
	DB	06dH
	DB	038H
	DB	06dH
	DB	038H
	DB	075H
	DB	039H
	DB	075H
	DB	039H
	DB	075H
	DB	039H
	DB	075H
	DB	039H
	DB	075H
	DB	038H
	DB	06dH
	DB	039H
	DB	075H
	DB	039H
	DB	075H
	DB	038H
	DB	075H
	DB	039H
	DB	075H
	DB	059H
	DB	075H
	DB	039H
	DB	075H
	DB	039H
	DB	075H
	DB	059H
	DB	075H
	DB	059H
	DB	07dH
	DB	059H
	DB	07dH
	DB	039H
	DB	07dH
	DB	059H
	DB	07dH
	DB	079H
	DB	07dH
	DB	079H
	DB	07dH
	DB	079H
	DB	07dH
	DB	079H
	DB	07dH
	DB	079H
	DB	085H
	DB	079H
	DB	085H
	DB	079H
	DB	085H
	DB	079H
	DB	07dH
	DB	079H
	DB	085H
	DB	079H
	DB	085H
	DB	079H
	DB	085H
	DB	099H
	DB	085H
	DB	079H
	DB	085H
	DB	099H
	DB	085H
	DB	099H
	DB	085H
	DB	099H
	DB	085H
	DB	09aH
	DB	08dH
	DB	099H
	DB	085H
	DB	099H
	DB	08dH
	DB	09aH
	DB	08dH
	DB	09aH
	DB	085H
	DB	099H
	DB	08dH
	DB	09aH
	DB	08dH
	DB	09aH
	DB	08dH
	DB	0baH
	DB	08dH
	DB	09aH
	DB	08dH
	DB	099H
	DB	08dH
	DB	09aH
	DB	08dH
	DB	09aH
	DB	08dH
	DB	09aH
	DB	08dH
	DB	09aH
	DB	08dH
	DB	09aH
	DB	08dH
	DB	099H
	DB	08dH
	DB	09aH
	DB	08dH
	DB	09aH
	DB	08dH
	DB	0baH
	DB	08dH
	DB	09aH
	DB	095H
	DB	0baH
	DB	095H
	DB	0daH
	DB	095H
	DB	0daH
	DB	095H
	DB	0daH
	DB	095H
	DB	0daH
	DB	095H
	DB	0daH
	DB	09dH
	DB	0daH
	DB	09dH
	DB	0daH
	DB	09dH
	DB	0daH
	DB	09dH
	DB	0daH
	DB	09dH
	DB	0faH
	DB	09dH
	DB	0faH
	DB	09dH
	DB	0daH
	DB	09dH
	DB	0dbH
	DB	09dH
	DB	0faH
	DB	09dH
	DB	0dbH
	DB	09dH
	DB	0faH
	DB	09dH
	DB	0daH
	DB	09dH
	DB	0daH
	DB	09dH
	DB	0faH
	DB	09dH
	DB	0faH
	DB	09dH
	DB	0faH
	DB	0a5H
	DB	0faH
	DB	0a5H
	DB	0faH
	DB	09dH
	DB	01bH
	DB	0a6H
	DB	03bH
	DB	0aeH
	DB	03bH
	DB	0aeH
	DB	03bH
	DB	0b6H
	DB	03bH
	DB	0aeH
	DB	01bH
	DB	0aeH
	DB	03aH
	DB	0aeH
	DB	03bH
	DB	0b6H
	DB	03bH
	DB	0b6H
	DB	03bH
	DB	0b6H
	DB	05bH
	DB	0b6H
	DB	05bH
	DB	0b6H
	DB	05bH
	DB	0b6H
	DB	05bH
	DB	0b6H
	DB	03bH
	DB	0b6H
	DB	03bH
	DB	0b6H
	DB	03bH
	DB	0b6H
	DB	03bH
	DB	0b6H
	DB	05bH
	DB	0b6H
	DB	05bH
	DB	0b6H
	DB	03bH
	DB	0b6H
	DB	03aH
	DB	0b6H
	DB	01aH
	DB	0aeH
	DB	01aH
	DB	0aeH
	DB	01aH
	DB	0aeH
	DB	01aH
	DB	0aeH
	DB	01aH
	DB	0aeH
	DB	01aH
	DB	0aeH
	DB	01bH
	DB	0aeH
	DB	01bH
	DB	0aeH
	DB	01bH
	DB	0aeH
	DB	01aH
	DB	0aeH
	DB	01aH
	DB	0b6H
	DB	05bH
	DB	0b6H
	DB	03bH
	DB	0b6H
	DB	05bH
	DB	0b6H
	DB	05bH
	DB	0beH
	DB	07bH
	DB	0beH
	DB	07bH
	DB	0beH
	DB	05bH
	DB	0beH
	DB	05bH
	DB	0b6H
	DB	05bH
	DB	0beH
	DB	05bH
	DB	0beH
	DB	05bH
	DB	0beH
	DB	05bH
	DB	0beH
	DB	05bH
	DB	0beH
	DB	05bH
	DB	0b6H
	DB	05bH
	DB	0beH
	DB	07bH
	DB	0beH
	DB	09cH
	DB	0beH
	DB	09cH
	DB	0beH
	DB	09cH
	DB	0c6H
	DB	0bcH
	DB	0ceH
	DB	0dcH
	DB	0ceH
	DB	0bdH
	DB	0ceH
	DB	09cH
	DB	0ceH
	DB	09cH
	DB	0c6H
	DB	09cH
	DB	0c6H
	DB	07bH
	DB	0beH
	DB	07bH
	DB	0beH
	DB	05bH
	DB	0beH
	DB	05bH
	DB	0beH
	DB	05bH
	DB	0beH
	DB	03bH
	DB	0beH
	DB	03bH
	DB	0beH
	DB	05bH
	DB	0b6H
	DB	05bH
	DB	0beH
	DB	05bH
	DB	0beH
	DB	05bH
	DB	0beH
	DB	07bH
	DB	0beH
	DB	07bH
	DB	0beH
	DB	0d8H
	DB	054H
	DB	0d8H
	DB	054H
	DB	0d8H
	DB	054H
	DB	0b8H
	DB	054H
	DB	0d8H
	DB	054H
	DB	0d8H
	DB	054H
	DB	0d8H
	DB	054H
	DB	0b8H
	DB	054H
	DB	0d8H
	DB	054H
	DB	0d8H
	DB	054H
	DB	0b8H
	DB	054H
	DB	0d8H
	DB	054H
	DB	0b8H
	DB	05cH
	DB	0d7H
	DB	05cH
	DB	0d8H
	DB	05cH
	DB	0d8H
	DB	05cH
	DB	0d8H
	DB	05cH
	DB	0d8H
	DB	05cH
	DB	0f8H
	DB	05cH
	DB	0f8H
	DB	05cH
	DB	0f8H
	DB	05cH
	DB	0d8H
	DB	05cH
	DB	0f8H
	DB	05cH
	DB	0d8H
	DB	054H
	DB	0b8H
	DB	054H
	DB	0b8H
	DB	054H
	DB	0d8H
	DB	054H
	DB	0f8H
	DB	05cH
	DB	0d8H
	DB	05cH
	DB	0d8H
	DB	054H
	DB	0d8H
	DB	05cH
	DB	0d8H
	DB	054H
	DB	0b8H
	DB	054H
	DB	0b8H
	DB	054H
	DB	0d8H
	DB	05cH
	DB	0f8H
	DB	05cH
	DB	019H
	DB	05dH
	DB	0f8H
	DB	05cH
	DB	018H
	DB	065H
	DB	039H
	DB	06dH
	DB	059H
	DB	075H
	DB	079H
	DB	075H
	DB	059H
	DB	075H
	DB	059H
	DB	075H
	DB	059H
	DB	075H
	DB	059H
	DB	075H
	DB	059H
	DB	075H
	DB	039H
	DB	075H
	DB	059H
	DB	075H
	DB	059H
	DB	075H
	DB	059H
	DB	075H
	DB	039H
	DB	06dH
	DB	0d8H
	DB	05cH
	DB	0b8H
	DB	05cH
	DB	0d8H
	DB	05cH
	DB	0f8H
	DB	05cH
	DB	0f8H
	DB	05cH
	DB	0f8H
	DB	05cH
	DB	0f8H
	DB	05cH
	DB	0f8H
	DB	064H
	DB	0d8H
	DB	05cH
	DB	0d8H
	DB	05cH
	DB	0f8H
	DB	064H
	DB	0d8H
	DB	05cH
	DB	0f8H
	DB	05cH
	DB	0f8H
	DB	05cH
	DB	0d8H
	DB	05cH
	DB	0f8H
	DB	064H
	DB	0f8H
	DB	05cH
	DB	0d8H
	DB	064H
	DB	0f9H
	DB	064H
	DB	0d9H
	DB	064H
	DB	0f8H
	DB	064H
	DB	0f9H
	DB	064H
	DB	0d9H
	DB	05cH
	DB	0d8H
	DB	05cH
	DB	0f9H
	DB	064H
	DB	0f9H
	DB	064H
	DB	0f8H
	DB	05cH
	DB	0f8H
	DB	064H
	DB	0f8H
	DB	064H
	DB	0f9H
	DB	064H
	DB	0f8H
	DB	064H
	DB	0f8H
	DB	06cH
	DB	0f9H
	DB	06cH
	DB	019H
	DB	06dH
	DB	018H
	DB	06dH
	DB	039H
	DB	06dH
	DB	039H
	DB	075H
	DB	039H
	DB	075H
	DB	039H
	DB	06dH
	DB	038H
	DB	075H
	DB	059H
	DB	075H
	DB	059H
	DB	075H
	DB	039H
	DB	075H
	DB	039H
	DB	075H
	DB	039H
	DB	06dH
	DB	039H
	DB	075H
	DB	039H
	DB	075H
	DB	039H
	DB	075H
	DB	039H
	DB	075H
	DB	059H
	DB	07dH
	DB	059H
	DB	07dH
	DB	058H
	DB	07dH
	DB	059H
	DB	07dH
	DB	059H
	DB	07dH
	DB	059H
	DB	07dH
	DB	079H
	DB	07dH
	DB	059H
	DB	07dH
	DB	059H
	DB	07dH
	DB	059H
	DB	085H
	DB	079H
	DB	07dH
	DB	079H
	DB	07dH
	DB	079H
	DB	085H
	DB	079H
	DB	07dH
	DB	079H
	DB	07dH
	DB	079H
	DB	07dH
	DB	079H
	DB	07dH
	DB	079H
	DB	085H
	DB	099H
	DB	085H
	DB	079H
	DB	085H
	DB	099H
	DB	085H
	DB	09aH
	DB	085H
	DB	099H
	DB	085H
	DB	09aH
	DB	085H
	DB	099H
	DB	08dH
	DB	09aH
	DB	085H
	DB	09aH
	DB	085H
	DB	099H
	DB	08dH
	DB	0baH
	DB	08dH
	DB	0baH
	DB	08dH
	DB	099H
	DB	08dH
	DB	0b9H
	DB	08dH
	DB	09aH
	DB	08dH
	DB	0baH
	DB	08dH
	DB	09aH
	DB	08dH
	DB	0b9H
	DB	08dH
	DB	09aH
	DB	08dH
	DB	0baH
	DB	08dH
	DB	0baH
	DB	08dH
	DB	0baH
	DB	08dH
	DB	0baH
	DB	08dH
	DB	0baH
	DB	095H
	DB	0baH
	DB	095H
	DB	0baH
	DB	095H
	DB	0daH
	DB	095H
	DB	0daH
	DB	095H
	DB	0daH
	DB	095H
	DB	0daH
	DB	095H
	DB	0daH
	DB	095H
	DB	0baH
	DB	095H
	DB	0daH
	DB	095H
	DB	0daH
	DB	095H
	DB	0daH
	DB	095H
	DB	0daH
	DB	09dH
	DB	0daH
	DB	09dH
	DB	0faH
	DB	09dH
	DB	0faH
	DB	09dH
	DB	0daH
	DB	09dH
	DB	0daH
	DB	095H
	DB	0daH
	DB	09dH
	DB	0daH
	DB	09dH
	DB	0faH
	DB	09dH
	DB	0dbH
	DB	09dH
	DB	0faH
	DB	0a5H
	DB	0faH
	DB	0a5H
	DB	0faH
	DB	09dH
	DB	0fbH
	DB	0a5H
	DB	01bH
	DB	0aeH
	DB	03bH
	DB	0aeH
	DB	05bH
	DB	0aeH
	DB	03bH
	DB	0aeH
	DB	01aH
	DB	0aeH
	DB	01aH
	DB	0aeH
	DB	03bH
	DB	0b6H
	DB	03bH
	DB	0b6H
	DB	03aH
	DB	0aeH
	DB	05bH
	DB	0b6H
	DB	05bH
	DB	0b6H
	DB	03bH
	DB	0b6H
	DB	03bH
	DB	0b6H
	DB	03bH
	DB	0b6H
	DB	03bH
	DB	0b6H
	DB	03bH
	DB	0b6H
	DB	03aH
	DB	0b6H
	DB	03bH
	DB	0b6H
	DB	05bH
	DB	0beH
	DB	03bH
	DB	0b6H
	DB	01aH
	DB	0aeH
	DB	0faH
	DB	0adH
	DB	01aH
	DB	0aeH
	DB	0faH
	DB	0a5H
	DB	0faH
	DB	0adH
	DB	0faH
	DB	0a5H
	DB	0fbH
	DB	0a5H
	DB	0faH
	DB	0a5H
	DB	01aH
	DB	0aeH
	DB	0fbH
	DB	0adH
	DB	01aH
	DB	0aeH
	DB	01aH
	DB	0aeH
	DB	01bH
	DB	0b6H
	DB	05bH
	DB	0b6H
	DB	03bH
	DB	0b6H
	DB	03bH
	DB	0b6H
	DB	05bH
	DB	0b6H
	DB	07bH
	DB	0beH
	DB	07bH
	DB	0beH
	DB	07bH
	DB	0beH
	DB	05bH
	DB	0b6H
	DB	03bH
	DB	0b6H
	DB	03bH
	DB	0b6H
	DB	03bH
	DB	0b6H
	DB	03bH
	DB	0b6H
	DB	05bH
	DB	0b6H
	DB	05bH
	DB	0b6H
	DB	05bH
	DB	0beH
	DB	05bH
	DB	0b6H
	DB	07cH
	DB	0beH
	DB	07bH
	DB	0beH
	DB	09cH
	DB	0beH
	DB	09cH
	DB	0c6H
	DB	0bcH
	DB	0c6H
	DB	0bcH
	DB	0ceH
	DB	0bcH
	DB	0c6H
	DB	09cH
	DB	0c6H
	DB	09cH
	DB	0beH
	DB	07bH
	DB	0beH
	DB	07bH
	DB	0beH
	DB	05bH
	DB	0beH
	DB	05bH
	DB	0beH
	DB	05bH
	DB	0beH
	DB	03bH
	DB	0b6H
	DB	03bH
	DB	0b6H
	DB	03bH
	DB	0b6H
	DB	05bH
	DB	0beH
	DB	03bH
	DB	0b6H
	DB	03bH
	DB	0b6H
	DB	05bH
	DB	0beH
	DB	05bH
	DB	0beH
	DB	05bH
	DB	0beH
	DB	0d8H
	DB	05cH
	DB	0d8H
	DB	05cH
	DB	0d8H
	DB	05cH
	DB	0d8H
	DB	054H
	DB	0d8H
	DB	054H
	DB	0d8H
	DB	05cH
	DB	0d8H
	DB	05cH
	DB	0d8H
	DB	054H
	DB	0d8H
	DB	05cH
	DB	0d8H
	DB	05cH
	DB	0d8H
	DB	054H
	DB	0d8H
	DB	05cH
	DB	0f8H
	DB	05cH
	DB	0d8H
	DB	05cH
	DB	0f8H
	DB	05cH
	DB	0f8H
	DB	05cH
	DB	0f8H
	DB	05cH
	DB	0f8H
	DB	05cH
	DB	0d8H
	DB	05cH
	DB	0f8H
	DB	064H
	DB	0f9H
	DB	064H
	DB	018H
	DB	05dH
	DB	0f8H
	DB	05cH
	DB	0d8H
	DB	05cH
	DB	0b8H
	DB	054H
	DB	0d8H
	DB	054H
	DB	0d8H
	DB	05cH
	DB	0d8H
	DB	05cH
	DB	0f8H
	DB	05cH
	DB	0f8H
	DB	064H
	DB	0f9H
	DB	05cH
	DB	0f8H
	DB	05cH
	DB	018H
	DB	065H
	DB	039H
	DB	06dH
	DB	039H
	DB	06dH
	DB	0f9H
	DB	05cH
	DB	0d8H
	DB	05cH
	DB	039H
	DB	06dH
	DB	059H
	DB	075H
	DB	079H
	DB	075H
	DB	079H
	DB	075H
	DB	059H
	DB	07dH
	DB	079H
	DB	07dH
	DB	059H
	DB	075H
	DB	059H
	DB	075H
	DB	059H
	DB	075H
	DB	079H
	DB	075H
	DB	059H
	DB	075H
	DB	079H
	DB	07dH
	DB	079H
	DB	07dH
	DB	079H
	DB	075H
	DB	079H
	DB	07dH
	DB	039H
	DB	06dH
	DB	0f8H
	DB	05cH
	DB	0d8H
	DB	064H
	DB	0f8H
	DB	05cH
	DB	0f8H
	DB	064H
	DB	0f8H
	DB	064H
	DB	0f8H
	DB	064H
	DB	019H
	DB	065H
	DB	019H
	DB	06dH
	DB	018H
	DB	065H
	DB	018H
	DB	065H
	DB	0f8H
	DB	064H
	DB	0f8H
	DB	064H
	DB	0f8H
	DB	064H
	DB	0f8H
	DB	064H
	DB	0f8H
	DB	064H
	DB	0f9H
	DB	064H
	DB	018H
	DB	065H
	DB	019H
	DB	065H
	DB	019H
	DB	065H
	DB	019H
	DB	065H
	DB	0f8H
	DB	064H
	DB	0f9H
	DB	064H
	DB	019H
	DB	06dH
	DB	019H
	DB	065H
	DB	019H
	DB	065H
	DB	0f8H
	DB	064H
	DB	0f8H
	DB	064H
	DB	0f9H
	DB	064H
	DB	0f9H
	DB	064H
	DB	018H
	DB	065H
	DB	019H
	DB	065H
	DB	038H
	DB	06dH
	DB	039H
	DB	06dH
	DB	039H
	DB	06dH
	DB	039H
	DB	075H
	DB	059H
	DB	075H
	DB	059H
	DB	075H
	DB	059H
	DB	075H
	DB	059H
	DB	075H
	DB	059H
	DB	075H
	DB	059H
	DB	075H
	DB	059H
	DB	075H
	DB	058H
	DB	075H
	DB	058H
	DB	075H
	DB	039H
	DB	075H
	DB	059H
	DB	075H
	DB	059H
	DB	07dH
	DB	039H
	DB	075H
	DB	039H
	DB	075H
	DB	059H
	DB	07dH
	DB	059H
	DB	07dH
	DB	039H
	DB	075H
	DB	059H
	DB	07dH
	DB	079H
	DB	07dH
	DB	059H
	DB	07dH
	DB	079H
	DB	07dH
	DB	059H
	DB	07dH
	DB	079H
	DB	07dH
	DB	059H
	DB	085H
	DB	079H
	DB	07dH
	DB	079H
	DB	07dH
	DB	079H
	DB	085H
	DB	079H
	DB	07dH
	DB	079H
	DB	085H
	DB	099H
	DB	085H
	DB	099H
	DB	085H
	DB	079H
	DB	085H
	DB	09aH
	DB	085H
	DB	07aH
	DB	085H
	DB	099H
	DB	085H
	DB	099H
	DB	085H
	DB	09aH
	DB	08dH
	DB	09aH
	DB	08dH
	DB	09aH
	DB	085H
	DB	09aH
	DB	08dH
	DB	0b9H
	DB	08dH
	DB	0b9H
	DB	08dH
	DB	0baH
	DB	08dH
	DB	0baH
	DB	08dH
	DB	0b9H
	DB	08dH
	DB	0baH
	DB	08dH
	DB	099H
	DB	08dH
	DB	0b9H
	DB	08dH
	DB	0baH
	DB	08dH
	DB	0b9H
	DB	08dH
	DB	0baH
	DB	08dH
	DB	0daH
	DB	095H
	DB	0b9H
	DB	095H
	DB	0daH
	DB	095H
	DB	0daH
	DB	095H
	DB	0daH
	DB	09dH
	DB	0daH
	DB	095H
	DB	0daH
	DB	095H
	DB	0daH
	DB	09dH
	DB	0daH
	DB	095H
	DB	0daH
	DB	09dH
	DB	0daH
	DB	09dH
	DB	0daH
	DB	095H
	DB	0daH
	DB	09dH
	DB	0daH
	DB	095H
	DB	0daH
	DB	09dH
	DB	0daH
	DB	095H
	DB	0dbH
	DB	09dH
	DB	0daH
	DB	095H
	DB	0daH
	DB	095H
	DB	0daH
	DB	09dH
	DB	0daH
	DB	09dH
	DB	0fbH
	DB	09dH
	DB	0daH
	DB	09dH
	DB	0faH
	DB	09dH
	DB	0faH
	DB	09dH
	DB	0fbH
	DB	09dH
	DB	0faH
	DB	0a5H
	DB	03bH
	DB	0aeH
	DB	03bH
	DB	0aeH
	DB	05bH
	DB	0aeH
	DB	03aH
	DB	0aeH
	DB	01aH
	DB	0aeH
	DB	01bH
	DB	0aeH
	DB	03bH
	DB	0aeH
	DB	03bH
	DB	0b6H
	DB	03bH
	DB	0b6H
	DB	05bH
	DB	0b6H
	DB	03bH
	DB	0b6H
	DB	03bH
	DB	0b6H
	DB	05bH
	DB	0b6H
	DB	03bH
	DB	0b6H
	DB	01aH
	DB	0aeH
	DB	01aH
	DB	0b6H
	DB	01aH
	DB	0aeH
	DB	01aH
	DB	0aeH
	DB	05bH
	DB	0b6H
	DB	05bH
	DB	0b6H
	DB	01aH
	DB	0aeH
	DB	0faH
	DB	0adH
	DB	0faH
	DB	0adH
	DB	0faH
	DB	0adH
	DB	0fbH
	DB	0a5H
	DB	0fbH
	DB	0a5H
	DB	0faH
	DB	0a5H
	DB	0faH
	DB	0a5H
	DB	0faH
	DB	0a5H
	DB	0faH
	DB	0a5H
	DB	0faH
	DB	0a5H
	DB	0faH
	DB	0adH
	DB	01aH
	DB	0aeH
	DB	01bH
	DB	0aeH
	DB	03bH
	DB	0b6H
	DB	03bH
	DB	0b6H
	DB	03bH
	DB	0aeH
	DB	05bH
	DB	0b6H
	DB	05bH
	DB	0b6H
	DB	05cH
	DB	0beH
	DB	05bH
	DB	0b6H
	DB	05bH
	DB	0b6H
	DB	03bH
	DB	0b6H
	DB	03bH
	DB	0b6H
	DB	03bH
	DB	0b6H
	DB	03bH
	DB	0b6H
	DB	03bH
	DB	0b6H
	DB	03bH
	DB	0b6H
	DB	05bH
	DB	0b6H
	DB	05bH
	DB	0b6H
	DB	05bH
	DB	0beH
	DB	07bH
	DB	0beH
	DB	09cH
	DB	0beH
	DB	07bH
	DB	0beH
	DB	09cH
	DB	0c6H
	DB	0bcH
	DB	0c6H
	DB	0bcH
	DB	0c6H
	DB	09cH
	DB	0c6H
	DB	09bH
	DB	0c6H
	DB	07bH
	DB	0beH
	DB	07bH
	DB	0beH
	DB	05bH
	DB	0beH
	DB	05bH
	DB	0b6H
	DB	03bH
	DB	0b6H
	DB	03bH
	DB	0b6H
	DB	03bH
	DB	0b6H
	DB	03bH
	DB	0b6H
	DB	03bH
	DB	0b6H
	DB	05bH
	DB	0beH
	DB	03bH
	DB	0b6H
	DB	03bH
	DB	0beH
	DB	03bH
	DB	0b6H
	DB	05bH
	DB	0beH
	DB	05bH
	DB	0beH
	DB	0d8H
	DB	05cH
	DB	0f8H
	DB	05cH
	DB	0d8H
	DB	05cH
	DB	0d8H
	DB	05cH
	DB	0d8H
	DB	05cH
	DB	0d8H
	DB	05cH
	DB	0d8H
	DB	05cH
	DB	0d8H
	DB	05cH
	DB	0f8H
	DB	05cH
	DB	0f8H
	DB	05cH
	DB	0f8H
	DB	05cH
	DB	0f8H
	DB	05cH
	DB	0f8H
	DB	064H
	DB	0f8H
	DB	05cH
	DB	0f9H
	DB	05cH
	DB	0f9H
	DB	064H
	DB	0f8H
	DB	064H
	DB	0f9H
	DB	064H
	DB	0f9H
	DB	064H
	DB	019H
	DB	065H
	DB	018H
	DB	065H
	DB	019H
	DB	065H
	DB	018H
	DB	065H
	DB	0d8H
	DB	05cH
	DB	0d8H
	DB	054H
	DB	0d8H
	DB	054H
	DB	0d8H
	DB	05cH
	DB	0f8H
	DB	05cH
	DB	0f9H
	DB	05cH
	DB	0f9H
	DB	064H
	DB	0f8H
	DB	064H
	DB	039H
	DB	065H
	DB	059H
	DB	075H
	DB	079H
	DB	07dH
	DB	099H
	DB	07dH
	DB	07aH
	DB	07dH
	DB	079H
	DB	075H
	DB	079H
	DB	07dH
	DB	079H
	DB	075H
	DB	079H
	DB	07dH
	DB	079H
	DB	07dH
	DB	099H
	DB	07dH
	DB	099H
	DB	07dH
	DB	079H
	DB	075H
	DB	079H
	DB	075H
	DB	059H
	DB	075H
	DB	079H
	DB	075H
	DB	079H
	DB	075H
	DB	099H
	DB	07dH
	DB	099H
	DB	07dH
	DB	099H
	DB	07dH
	DB	079H
	DB	07dH
	DB	099H
	DB	07dH
	DB	09aH
	DB	07dH
	DB	059H
	DB	075H
	DB	018H
	DB	065H
	DB	019H
	DB	06dH
	DB	039H
	DB	06dH
	DB	059H
	DB	075H
	DB	039H
	DB	075H
	DB	059H
	DB	075H
	DB	059H
	DB	075H
	DB	039H
	DB	075H
	DB	039H
	DB	06dH
	DB	039H
	DB	06dH
	DB	019H
	DB	06dH
	DB	018H
	DB	065H
	DB	019H
	DB	065H
	DB	0f9H
	DB	06cH
	DB	019H
	DB	065H
	DB	019H
	DB	06dH
	DB	019H
	DB	06dH
	DB	019H
	DB	065H
	DB	019H
	DB	06dH
	DB	018H
	DB	065H
	DB	018H
	DB	065H
	DB	019H
	DB	06dH
	DB	019H
	DB	06dH
	DB	0f9H
	DB	06cH
	DB	019H
	DB	065H
	DB	018H
	DB	06dH
	DB	019H
	DB	06dH
	DB	019H
	DB	06dH
	DB	019H
	DB	06dH
	DB	038H
	DB	06dH
	DB	039H
	DB	06dH
	DB	039H
	DB	075H
	DB	039H
	DB	075H
	DB	039H
	DB	075H
	DB	059H
	DB	075H
	DB	059H
	DB	075H
	DB	039H
	DB	075H
	DB	039H
	DB	075H
	DB	039H
	DB	075H
	DB	039H
	DB	075H
	DB	059H
	DB	075H
	DB	039H
	DB	075H
	DB	039H
	DB	075H
	DB	059H
	DB	07dH
	DB	059H
	DB	07dH
	DB	059H
	DB	07dH
	DB	059H
	DB	07dH
	DB	059H
	DB	07dH
	DB	059H
	DB	07dH
	DB	059H
	DB	07dH
	DB	059H
	DB	07dH
	DB	079H
	DB	07dH
	DB	079H
	DB	07dH
	DB	059H
	DB	07dH
	DB	079H
	DB	07dH
	DB	079H
	DB	07dH
	DB	07aH
	DB	07dH
	DB	079H
	DB	085H
	DB	079H
	DB	085H
	DB	07aH
	DB	07dH
	DB	079H
	DB	085H
	DB	07aH
	DB	085H
	DB	07aH
	DB	085H
	DB	07aH
	DB	07dH
	DB	09aH
	DB	085H
	DB	099H
	DB	085H
	DB	09aH
	DB	085H
	DB	09aH
	DB	085H
	DB	09aH
	DB	085H
	DB	099H
	DB	08dH
	DB	099H
	DB	085H
	DB	099H
	DB	08dH
	DB	0baH
	DB	08dH
	DB	09aH
	DB	08dH
	DB	09aH
	DB	08dH
	DB	0baH
	DB	08dH
	DB	0baH
	DB	08dH
	DB	0baH
	DB	08dH
	DB	09aH
	DB	08dH
	DB	0baH
	DB	08dH
	DB	0baH
	DB	08dH
	DB	0baH
	DB	095H
	DB	0daH
	DB	095H
	DB	0baH
	DB	095H
	DB	0daH
	DB	095H
	DB	0daH
	DB	095H
	DB	0daH
	DB	095H
	DB	0daH
	DB	09dH
	DB	0faH
	DB	095H
	DB	0daH
	DB	095H
	DB	0daH
	DB	095H
	DB	0daH
	DB	095H
	DB	0daH
	DB	09dH
	DB	0daH
	DB	09dH
	DB	0daH
	DB	095H
	DB	0daH
	DB	09dH
	DB	0daH
	DB	095H
	DB	0daH
	DB	09dH
	DB	0daH
	DB	09dH
	DB	0daH
	DB	095H
	DB	0daH
	DB	09dH
	DB	0dbH
	DB	09dH
	DB	0daH
	DB	09dH
	DB	0faH
	DB	09dH
	DB	0daH
	DB	09dH
	DB	0daH
	DB	09dH
	DB	0faH
	DB	09dH
	DB	0fbH
	DB	09dH
	DB	0faH
	DB	0a5H
	DB	01bH
	DB	0aeH
	DB	03bH
	DB	0aeH
	DB	03bH
	DB	0aeH
	DB	01aH
	DB	0a6H
	DB	01aH
	DB	0a6H
	DB	0faH
	DB	0a5H
	DB	01bH
	DB	0aeH
	DB	01bH
	DB	0aeH
	DB	03bH
	DB	0aeH
	DB	03bH
	DB	0aeH
	DB	03bH
	DB	0b6H
	DB	03aH
	DB	0aeH
	DB	03bH
	DB	0b6H
	DB	03bH
	DB	0b6H
	DB	03aH
	DB	0aeH
	DB	01aH
	DB	0aeH
	DB	01bH
	DB	0aeH
	DB	01aH
	DB	0aeH
	DB	03bH
	DB	0b6H
	DB	05bH
	DB	0b6H
	DB	0faH
	DB	0adH
	DB	0faH
	DB	0a5H
	DB	0faH
	DB	0a5H
	DB	0faH
	DB	0a5H
	DB	0faH
	DB	0a5H
	DB	0faH
	DB	0a5H
	DB	0faH
	DB	0a5H
	DB	0faH
	DB	0a5H
	DB	0daH
	DB	0a5H
	DB	0faH
	DB	0a5H
	DB	0fbH
	DB	0a5H
	DB	0fbH
	DB	0adH
	DB	0fbH
	DB	0a5H
	DB	01bH
	DB	0a6H
	DB	01bH
	DB	0aeH
	DB	03bH
	DB	0aeH
	DB	03bH
	DB	0aeH
	DB	01aH
	DB	0aeH
	DB	03bH
	DB	0b6H
	DB	05bH
	DB	0b6H
	DB	03bH
	DB	0b6H
	DB	03bH
	DB	0b6H
	DB	03bH
	DB	0aeH
	DB	03bH
	DB	0b6H
	DB	01bH
	DB	0aeH
	DB	03bH
	DB	0aeH
	DB	01aH
	DB	0aeH
	DB	01bH
	DB	0b6H
	DB	03aH
	DB	0b6H
	DB	03aH
	DB	0b6H
	DB	03bH
	DB	0b6H
	DB	05bH
	DB	0b6H
	DB	05bH
	DB	0b6H
	DB	07cH
	DB	0beH
	DB	09cH
	DB	0beH
	DB	09bH
	DB	0c6H
	DB	09cH
	DB	0c6H
	DB	09cH
	DB	0c6H
	DB	09bH
	DB	0c6H
	DB	07cH
	DB	0c6H
	DB	07cH
	DB	0beH
	DB	07bH
	DB	0beH
	DB	05bH
	DB	0b6H
	DB	03bH
	DB	0b6H
	DB	03bH
	DB	0b6H
	DB	03bH
	DB	0b6H
	DB	03aH
	DB	0b6H
	DB	03bH
	DB	0b6H
	DB	03bH
	DB	0b6H
	DB	03aH
	DB	0b6H
	DB	03bH
	DB	0b6H
	DB	03bH
	DB	0b6H
	DB	03bH
	DB	0b6H
	DB	03bH
	DB	0b6H
	DB	03bH
	DB	0b6H
	DB	03bH
	DB	0b6H
	DB	019H
	DB	05dH
	DB	019H
	DB	05dH
	DB	0f8H
	DB	05cH
	DB	0f8H
	DB	05cH
	DB	0f8H
	DB	05cH
	DB	0f8H
	DB	05cH
	DB	0f8H
	DB	05cH
	DB	0f8H
	DB	05cH
	DB	019H
	DB	065H
	DB	019H
	DB	065H
	DB	019H
	DB	065H
	DB	018H
	DB	065H
	DB	019H
	DB	065H
	DB	019H
	DB	065H
	DB	018H
	DB	065H
	DB	018H
	DB	065H
	DB	019H
	DB	065H
	DB	019H
	DB	065H
	DB	019H
	DB	05dH
	DB	018H
	DB	065H
	DB	0f9H
	DB	05cH
	DB	019H
	DB	065H
	DB	019H
	DB	065H
	DB	039H
	DB	065H
	DB	039H
	DB	06dH
	DB	039H
	DB	065H
	DB	018H
	DB	065H
	DB	0f8H
	DB	05cH
	DB	019H
	DB	065H
	DB	019H
	DB	065H
	DB	039H
	DB	065H
	DB	039H
	DB	06dH
	DB	059H
	DB	075H
	DB	079H
	DB	075H
	DB	079H
	DB	075H
	DB	09aH
	DB	07dH
	DB	099H
	DB	07dH
	DB	099H
	DB	07dH
	DB	099H
	DB	075H
	DB	07aH
	DB	075H
	DB	079H
	DB	075H
	DB	079H
	DB	07dH
	DB	079H
	DB	07dH
	DB	099H
	DB	07dH
	DB	079H
	DB	075H
	DB	079H
	DB	075H
	DB	079H
	DB	075H
	DB	059H
	DB	075H
	DB	079H
	DB	07dH
	DB	099H
	DB	07dH
	DB	079H
	DB	07dH
	DB	099H
	DB	07dH
	DB	09aH
	DB	07dH
	DB	079H
	DB	07dH
	DB	059H
	DB	075H
	DB	059H
	DB	075H
	DB	039H
	DB	06dH
	DB	059H
	DB	075H
	DB	059H
	DB	075H
	DB	079H
	DB	075H
	DB	079H
	DB	075H
	DB	059H
	DB	075H
	DB	059H
	DB	075H
	DB	059H
	DB	075H
	DB	059H
	DB	075H
	DB	059H
	DB	075H
	DB	059H
	DB	075H
	DB	039H
	DB	06dH
	DB	019H
	DB	06dH
	DB	018H
	DB	065H
	DB	018H
	DB	065H
	DB	019H
	DB	06dH
	DB	019H
	DB	06dH
	DB	018H
	DB	065H
	DB	019H
	DB	06dH
	DB	019H
	DB	06dH
	DB	019H
	DB	06dH
	DB	018H
	DB	06dH
	DB	039H
	DB	06dH
	DB	039H
	DB	06dH
	DB	039H
	DB	06dH
	DB	039H
	DB	06dH
	DB	038H
	DB	06dH
	DB	039H
	DB	06dH
	DB	039H
	DB	075H
	DB	038H
	DB	06dH
	DB	039H
	DB	06dH
	DB	039H
	DB	06dH
	DB	039H
	DB	075H
	DB	059H
	DB	075H
	DB	059H
	DB	075H
	DB	059H
	DB	075H
	DB	039H
	DB	075H
	DB	059H
	DB	075H
	DB	059H
	DB	075H
	DB	059H
	DB	075H
	DB	059H
	DB	07dH
	DB	059H
	DB	07dH
	DB	059H
	DB	075H
	DB	079H
	DB	07dH
	DB	079H
	DB	07dH
	DB	059H
	DB	07dH
	DB	079H
	DB	07dH
	DB	079H
	DB	07dH
	DB	079H
	DB	07dH
	DB	079H
	DB	07dH
	DB	059H
	DB	07dH
	DB	079H
	DB	07dH
	DB	059H
	DB	07dH
	DB	079H
	DB	07dH
	DB	07aH
	DB	07dH
	DB	079H
	DB	07dH
	DB	079H
	DB	07dH
	DB	07aH
	DB	085H
	DB	09aH
	DB	07dH
	DB	079H
	DB	085H
	DB	099H
	DB	07dH
	DB	079H
	DB	07dH
	DB	09aH
	DB	085H
	DB	079H
	DB	085H
	DB	099H
	DB	085H
	DB	099H
	DB	085H
	DB	09aH
	DB	085H
	DB	099H
	DB	085H
	DB	09aH
	DB	085H
	DB	09aH
	DB	08dH
	DB	099H
	DB	08dH
	DB	0baH
	DB	08dH
	DB	0baH
	DB	08dH
	DB	099H
	DB	08dH
	DB	099H
	DB	08dH
	DB	09aH
	DB	08dH
	DB	0baH
	DB	08dH
	DB	0baH
	DB	08dH
	DB	0baH
	DB	095H
	DB	0baH
	DB	08dH
	DB	0baH
	DB	095H
	DB	0daH
	DB	095H
	DB	0daH
	DB	095H
	DB	0daH
	DB	095H
	DB	0daH
	DB	095H
	DB	0daH
	DB	095H
	DB	0daH
	DB	095H
	DB	0daH
	DB	095H
	DB	0daH
	DB	095H
	DB	0faH
	DB	09dH
	DB	0faH
	DB	095H
	DB	0faH
	DB	095H
	DB	0faH
	DB	095H
	DB	0faH
	DB	09dH
	DB	0faH
	DB	095H
	DB	0daH
	DB	095H
	DB	0daH
	DB	09dH
	DB	0daH
	DB	09dH
	DB	0daH
	DB	095H
	DB	0faH
	DB	09dH
	DB	0faH
	DB	09dH
	DB	0fbH
	DB	095H
	DB	0daH
	DB	09dH
	DB	0faH
	DB	095H
	DB	0fbH
	DB	09dH
	DB	0fbH
	DB	0a5H
	DB	03bH
	DB	0aeH
	DB	03bH
	DB	0aeH
	DB	03bH
	DB	0a6H
	DB	01bH
	DB	0a6H
	DB	01bH
	DB	0a6H
	DB	01bH
	DB	0aeH
	DB	01bH
	DB	0a6H
	DB	01bH
	DB	0aeH
	DB	01bH
	DB	0aeH
	DB	03aH
	DB	0aeH
	DB	03bH
	DB	0aeH
	DB	03bH
	DB	0b6H
	DB	03bH
	DB	0aeH
	DB	03bH
	DB	0aeH
	DB	03aH
	DB	0aeH
	DB	01bH
	DB	0aeH
	DB	01aH
	DB	0aeH
	DB	01aH
	DB	0a6H
	DB	03bH
	DB	0aeH
	DB	03bH
	DB	0b6H
	DB	01bH
	DB	0aeH
	DB	0faH
	DB	0a5H
	DB	0faH
	DB	0a5H
	DB	0faH
	DB	0a5H
	DB	0daH
	DB	0a5H
	DB	0daH
	DB	09dH
	DB	0daH
	DB	09dH
	DB	0daH
	DB	09dH
	DB	0daH
	DB	0a5H
	DB	0faH
	DB	0a5H
	DB	0faH
	DB	0a5H
	DB	0daH
	DB	0a5H
	DB	0fbH
	DB	0a5H
	DB	01aH
	DB	0a6H
	DB	01aH
	DB	0a6H
	DB	0fbH
	DB	0a5H
	DB	03bH
	DB	0b6H
	DB	01aH
	DB	0aeH
	DB	01bH
	DB	0aeH
	DB	03bH
	DB	0aeH
	DB	03bH
	DB	0b6H
	DB	03bH
	DB	0b6H
	DB	03bH
	DB	0aeH
	DB	03bH
	DB	0aeH
	DB	03bH
	DB	0aeH
	DB	01bH
	DB	0aeH
	DB	01bH
	DB	0aeH
	DB	01aH
	DB	0aeH
	DB	01bH
	DB	0aeH
	DB	03bH
	DB	0b6H
	DB	03aH
	DB	0b6H
	DB	03bH
	DB	0b6H
	DB	03bH
	DB	0b6H
	DB	05bH
	DB	0b6H
	DB	05bH
	DB	0b6H
	DB	07bH
	DB	0beH
	DB	07cH
	DB	0beH
	DB	07cH
	DB	0beH
	DB	09cH
	DB	0c6H
	DB	09cH
	DB	0c6H
	DB	07bH
	DB	0beH
	DB	07bH
	DB	0beH
	DB	07bH
	DB	0beH
	DB	05bH
	DB	0b6H
	DB	03bH
	DB	0b6H
	DB	03bH
	DB	0b6H
	DB	03bH
	DB	0b6H
	DB	03bH
	DB	0b6H
	DB	03aH
	DB	0b6H
	DB	03aH
	DB	0b6H
	DB	01bH
	DB	0b6H
	DB	03bH
	DB	0b6H
	DB	01aH
	DB	0aeH
	DB	03bH
	DB	0aeH
	DB	03bH
	DB	0b6H
	DB	03bH
	DB	0b6H
	DB	03bH
	DB	0b6H
	DB	05bH
	DB	0b6H
	DB	018H
	DB	065H
	DB	0f9H
	DB	05cH
	DB	018H
	DB	05dH
	DB	019H
	DB	05dH
	DB	0f9H
	DB	05cH
	DB	0f8H
	DB	05cH
	DB	0f9H
	DB	05cH
	DB	019H
	DB	065H
	DB	019H
	DB	065H
	DB	039H
	DB	065H
	DB	039H
	DB	065H
	DB	039H
	DB	06dH
	DB	039H
	DB	065H
	DB	019H
	DB	065H
	DB	019H
	DB	065H
	DB	019H
	DB	065H
	DB	018H
	DB	065H
	DB	018H
	DB	065H
	DB	018H
	DB	065H
	DB	019H
	DB	065H
	DB	039H
	DB	06dH
	DB	019H
	DB	065H
	DB	039H
	DB	065H
	DB	079H
	DB	075H
	DB	079H
	DB	07dH
	DB	079H
	DB	075H
	DB	07aH
	DB	075H
	DB	059H
	DB	06dH
	DB	039H
	DB	06dH
	DB	039H
	DB	065H
	DB	039H
	DB	06dH
	DB	059H
	DB	06dH
	DB	059H
	DB	06dH
	DB	05aH
	DB	075H
	DB	059H
	DB	075H
	DB	099H
	DB	07dH
	DB	09aH
	DB	07dH
	DB	09aH
	DB	07dH
	DB	09aH
	DB	07dH
	DB	099H
	DB	07dH
	DB	09aH
	DB	07dH
	DB	09aH
	DB	07dH
	DB	09aH
	DB	07dH
	DB	07aH
	DB	075H
	DB	059H
	DB	075H
	DB	079H
	DB	075H
	DB	05aH
	DB	075H
	DB	059H
	DB	075H
	DB	059H
	DB	075H
	DB	07aH
	DB	07dH
	DB	07aH
	DB	075H
	DB	059H
	DB	075H
	DB	059H
	DB	075H
	DB	059H
	DB	075H
	DB	059H
	DB	075H
	DB	059H
	DB	075H
	DB	059H
	DB	075H
	DB	059H
	DB	075H
	DB	059H
	DB	075H
	DB	059H
	DB	075H
	DB	059H
	DB	075H
	DB	079H
	DB	07dH
	DB	07aH
	DB	07dH
	DB	079H
	DB	075H
	DB	079H
	DB	075H
	DB	059H
	DB	075H
	DB	039H
	DB	075H
	DB	039H
	DB	06dH
	DB	018H
	DB	06dH
	DB	019H
	DB	065H
	DB	018H
	DB	065H
	DB	018H
	DB	065H
	DB	019H
	DB	065H
	DB	039H
	DB	06dH
	DB	039H
	DB	06dH
	DB	019H
	DB	06dH
	DB	019H
	DB	06dH
	DB	018H
	DB	06dH
	DB	039H
	DB	06dH
	DB	038H
	DB	06dH
	DB	038H
	DB	06dH
	DB	039H
	DB	06dH
	DB	039H
	DB	06dH
	DB	039H
	DB	075H
	DB	039H
	DB	075H
	DB	039H
	DB	075H
	DB	059H
	DB	075H
	DB	038H
	DB	075H
	DB	039H
	DB	06dH
	DB	039H
	DB	06dH
	DB	039H
	DB	06dH
	DB	038H
	DB	075H
	DB	039H
	DB	075H
	DB	039H
	DB	075H
	DB	058H
	DB	075H
	DB	059H
	DB	075H
	DB	059H
	DB	07dH
	DB	059H
	DB	075H
	DB	079H
	DB	07dH
	DB	079H
	DB	07dH
	DB	079H
	DB	075H
	DB	079H
	DB	07dH
	DB	079H
	DB	07dH
	DB	079H
	DB	07dH
	DB	079H
	DB	075H
	DB	07aH
	DB	07dH
	DB	059H
	DB	07dH
	DB	07aH
	DB	07dH
	DB	07aH
	DB	07dH
	DB	079H
	DB	07dH
	DB	079H
	DB	07dH
	DB	07aH
	DB	085H
	DB	09aH
	DB	085H
	DB	099H
	DB	085H
	DB	079H
	DB	085H
	DB	09aH
	DB	085H
	DB	079H
	DB	085H
	DB	09aH
	DB	085H
	DB	099H
	DB	085H
	DB	079H
	DB	085H
	DB	09aH
	DB	085H
	DB	09aH
	DB	085H
	DB	099H
	DB	085H
	DB	09aH
	DB	08dH
	DB	09aH
	DB	08dH
	DB	0baH
	DB	08dH
	DB	0b9H
	DB	085H
	DB	0baH
	DB	08dH
	DB	0baH
	DB	08dH
	DB	0baH
	DB	085H
	DB	0baH
	DB	08dH
	DB	0baH
	DB	08dH
	DB	0baH
	DB	08dH
	DB	0daH
	DB	095H
	DB	0daH
	DB	095H
	DB	0daH
	DB	095H
	DB	0baH
	DB	08dH
	DB	0daH
	DB	095H
	DB	0daH
	DB	095H
	DB	0dbH
	DB	095H
	DB	0daH
	DB	095H
	DB	0daH
	DB	095H
	DB	0dbH
	DB	095H
	DB	0faH
	DB	095H
	DB	0faH
	DB	09dH
	DB	0dbH
	DB	095H
	DB	0daH
	DB	095H
	DB	0daH
	DB	09dH
	DB	0daH
	DB	095H
	DB	0daH
	DB	095H
	DB	0dbH
	DB	09dH
	DB	0daH
	DB	095H
	DB	0daH
	DB	095H
	DB	0dbH
	DB	095H
	DB	0daH
	DB	095H
	DB	0daH
	DB	095H
	DB	0daH
	DB	095H
	DB	0daH
	DB	09dH
	DB	0faH
	DB	09dH
	DB	01bH
	DB	0a6H
	DB	01bH
	DB	0a6H
	DB	03bH
	DB	0aeH
	DB	01aH
	DB	0a6H
	DB	0faH
	DB	09dH
	DB	0faH
	DB	0a5H
	DB	0faH
	DB	0a5H
	DB	0faH
	DB	0a5H
	DB	01aH
	DB	0a6H
	DB	01bH
	DB	0aeH
	DB	03bH
	DB	0aeH
	DB	03bH
	DB	0aeH
	DB	01bH
	DB	0aeH
	DB	03aH
	DB	0aeH
	DB	01bH
	DB	0aeH
	DB	01aH
	DB	0aeH
	DB	01bH
	DB	0a6H
	DB	01aH
	DB	0a6H
	DB	0faH
	DB	0a5H
	DB	0fbH
	DB	0a5H
	DB	01bH
	DB	0aeH
	DB	01aH
	DB	0aeH
	DB	0faH
	DB	0a5H
	DB	0daH
	DB	0a5H
	DB	0daH
	DB	09dH
	DB	0daH
	DB	0a5H
	DB	0daH
	DB	09dH
	DB	0daH
	DB	09dH
	DB	0daH
	DB	09dH
	DB	0daH
	DB	09dH
	DB	0daH
	DB	09dH
	DB	0daH
	DB	09dH
	DB	0daH
	DB	09dH
	DB	0daH
	DB	09dH
	DB	0faH
	DB	09dH
	DB	0faH
	DB	09dH
	DB	0faH
	DB	0a5H
	DB	0fbH
	DB	0a5H
	DB	03bH
	DB	0aeH
	DB	01aH
	DB	0aeH
	DB	01bH
	DB	0aeH
	DB	03bH
	DB	0aeH
	DB	03bH
	DB	0aeH
	DB	03bH
	DB	0aeH
	DB	03bH
	DB	0aeH
	DB	01bH
	DB	0aeH
	DB	01bH
	DB	0aeH
	DB	0faH
	DB	0adH
	DB	0fbH
	DB	0adH
	DB	01bH
	DB	0aeH
	DB	01bH
	DB	0aeH
	DB	01aH
	DB	0aeH
	DB	01bH
	DB	0aeH
	DB	03bH
	DB	0b6H
	DB	03bH
	DB	0b6H
	DB	03bH
	DB	0b6H
	DB	05bH
	DB	0b6H
	DB	07bH
	DB	0beH
	DB	07bH
	DB	0beH
	DB	07bH
	DB	0beH
	DB	07cH
	DB	0c6H
	DB	09cH
	DB	0c6H
	DB	07cH
	DB	0beH
	DB	07bH
	DB	0beH
	DB	05bH
	DB	0beH
	DB	05bH
	DB	0beH
	DB	05bH
	DB	0b6H
	DB	03bH
	DB	0b6H
	DB	01bH
	DB	0b6H
	DB	03bH
	DB	0b6H
	DB	03bH
	DB	0b6H
	DB	01aH
	DB	0aeH
	DB	01bH
	DB	0aeH
	DB	01aH
	DB	0aeH
	DB	03bH
	DB	0aeH
	DB	01bH
	DB	0b6H
	DB	01bH
	DB	0aeH
	DB	03bH
	DB	0b6H
	DB	01bH
	DB	0b6H
	DB	03bH
	DB	0b6H
	DB	03bH
	DB	0b6H
	DB	059H
	DB	075H
	DB	059H
	DB	06dH
	DB	039H
	DB	06dH
	DB	039H
	DB	06dH
	DB	039H
	DB	065H
	DB	039H
	DB	065H
	DB	039H
	DB	065H
	DB	039H
	DB	065H
	DB	038H
	DB	065H
	DB	039H
	DB	06dH
	DB	039H
	DB	06dH
	DB	039H
	DB	06dH
	DB	039H
	DB	06dH
	DB	039H
	DB	065H
	DB	039H
	DB	06dH
	DB	039H
	DB	065H
	DB	039H
	DB	065H
	DB	039H
	DB	06dH
	DB	059H
	DB	06dH
	DB	059H
	DB	06dH
	DB	079H
	DB	075H
	DB	079H
	DB	075H
	DB	059H
	DB	06dH
	DB	05aH
	DB	075H
	DB	079H
	DB	075H
	DB	07aH
	DB	07dH
	DB	09aH
	DB	07dH
	DB	09aH
	DB	07dH
	DB	079H
	DB	075H
	DB	059H
	DB	06dH
	DB	059H
	DB	075H
	DB	059H
	DB	06dH
	DB	059H
	DB	06dH
	DB	05aH
	DB	075H
	DB	079H
	DB	075H
	DB	079H
	DB	075H
	DB	09aH
	DB	07dH
	DB	09aH
	DB	07dH
	DB	09aH
	DB	07dH
	DB	09aH
	DB	07dH
	DB	099H
	DB	07dH
	DB	09aH
	DB	07dH
	DB	099H
	DB	075H
	DB	079H
	DB	075H
	DB	07aH
	DB	075H
	DB	059H
	DB	075H
	DB	059H
	DB	075H
	DB	059H
	DB	075H
	DB	079H
	DB	075H
	DB	07aH
	DB	075H
	DB	079H
	DB	075H
	DB	079H
	DB	075H
	DB	059H
	DB	075H
	DB	07aH
	DB	075H
	DB	07aH
	DB	075H
	DB	079H
	DB	075H
	DB	079H
	DB	075H
	DB	059H
	DB	075H
	DB	05aH
	DB	075H
	DB	079H
	DB	075H
	DB	059H
	DB	075H
	DB	07aH
	DB	075H
	DB	079H
	DB	07dH
	DB	07aH
	DB	07dH
	DB	07aH
	DB	075H
	DB	079H
	DB	075H
	DB	079H
	DB	075H
	DB	059H
	DB	075H
	DB	059H
	DB	06dH
	DB	039H
	DB	06dH
	DB	039H
	DB	06dH
	DB	039H
	DB	06dH
	DB	019H
	DB	065H
	DB	039H
	DB	065H
	DB	018H
	DB	06dH
	DB	038H
	DB	065H
	DB	039H
	DB	065H
	DB	039H
	DB	06dH
	DB	039H
	DB	06dH
	DB	039H
	DB	06dH
	DB	039H
	DB	06dH
	DB	039H
	DB	06dH
	DB	059H
	DB	075H
	DB	059H
	DB	075H
	DB	059H
	DB	075H
	DB	059H
	DB	075H
	DB	059H
	DB	075H
	DB	039H
	DB	075H
	DB	059H
	DB	075H
	DB	059H
	DB	075H
	DB	059H
	DB	075H
	DB	059H
	DB	075H
	DB	059H
	DB	075H
	DB	059H
	DB	075H
	DB	059H
	DB	075H
	DB	059H
	DB	075H
	DB	059H
	DB	075H
	DB	079H
	DB	07dH
	DB	079H
	DB	07dH
	DB	05aH
	DB	07dH
	DB	059H
	DB	07dH
	DB	079H
	DB	075H
	DB	079H
	DB	07dH
	DB	079H
	DB	07dH
	DB	07aH
	DB	07dH
	DB	079H
	DB	07dH
	DB	079H
	DB	07dH
	DB	079H
	DB	07dH
	DB	079H
	DB	07dH
	DB	079H
	DB	085H
	DB	09aH
	DB	085H
	DB	09aH
	DB	085H
	DB	099H
	DB	07dH
	DB	09aH
	DB	085H
	DB	09aH
	DB	085H
	DB	099H
	DB	085H
	DB	09aH
	DB	085H
	DB	07aH
	DB	085H
	DB	09aH
	DB	085H
	DB	09aH
	DB	085H
	DB	09aH
	DB	085H
	DB	099H
	DB	085H
	DB	09aH
	DB	08dH
	DB	0baH
	DB	085H
	DB	0baH
	DB	085H
	DB	0baH
	DB	08dH
	DB	0baH
	DB	08dH
	DB	0baH
	DB	08dH
	DB	0baH
	DB	08dH
	DB	0daH
	DB	08dH
	DB	0baH
	DB	08dH
	DB	0daH
	DB	095H
	DB	0daH
	DB	095H
	DB	0daH
	DB	095H
	DB	0daH
	DB	095H
	DB	0daH
	DB	095H
	DB	0daH
	DB	095H
	DB	0daH
	DB	095H
	DB	0daH
	DB	095H
	DB	0daH
	DB	095H
	DB	0daH
	DB	095H
	DB	0daH
	DB	095H
	DB	0daH
	DB	095H
	DB	0daH
	DB	095H
	DB	0daH
	DB	095H
	DB	0daH
	DB	095H
	DB	0daH
	DB	095H
	DB	0daH
	DB	095H
	DB	0daH
	DB	095H
	DB	0daH
	DB	095H
	DB	0daH
	DB	095H
	DB	0daH
	DB	095H
	DB	0daH
	DB	095H
	DB	0daH
	DB	095H
	DB	0daH
	DB	09dH
	DB	0daH
	DB	09dH
	DB	0fbH
	DB	09dH
	DB	01bH
	DB	0a6H
	DB	01bH
	DB	0a6H
	DB	03bH
	DB	0a6H
	DB	01aH
	DB	0a6H
	DB	0faH
	DB	09dH
	DB	0fbH
	DB	0a5H
	DB	01aH
	DB	0a6H
	DB	0faH
	DB	0a5H
	DB	01bH
	DB	0a6H
	DB	01bH
	DB	0aeH
	DB	01bH
	DB	0aeH
	DB	03aH
	DB	0aeH
	DB	01bH
	DB	0aeH
	DB	01aH
	DB	0a6H
	DB	01aH
	DB	0aeH
	DB	01bH
	DB	0a6H
	DB	01aH
	DB	0a6H
	DB	0faH
	DB	0a5H
	DB	0faH
	DB	0a5H
	DB	0faH
	DB	0a5H
	DB	01bH
	DB	0aeH
	DB	01bH
	DB	0a6H
	DB	0daH
	DB	0a5H
	DB	0daH
	DB	09dH
	DB	0daH
	DB	09dH
	DB	0daH
	DB	09dH
	DB	0daH
	DB	09dH
	DB	0daH
	DB	09dH
	DB	0daH
	DB	09dH
	DB	0daH
	DB	09dH
	DB	0daH
	DB	09dH
	DB	0daH
	DB	09dH
	DB	0faH
	DB	09dH
	DB	0daH
	DB	09dH
	DB	0daH
	DB	09dH
	DB	0daH
	DB	09dH
	DB	0daH
	DB	09dH
	DB	0dbH
	DB	0a5H
	DB	0fbH
	DB	0a5H
	DB	03bH
	DB	0aeH
	DB	01bH
	DB	0aeH
	DB	01bH
	DB	0aeH
	DB	03bH
	DB	0aeH
	DB	03bH
	DB	0aeH
	DB	01bH
	DB	0aeH
	DB	01aH
	DB	0aeH
	DB	01bH
	DB	0aeH
	DB	01bH
	DB	0a6H
	DB	01aH
	DB	0a6H
	DB	0faH
	DB	0a5H
	DB	01bH
	DB	0aeH
	DB	01aH
	DB	0aeH
	DB	01bH
	DB	0aeH
	DB	01aH
	DB	0aeH
	DB	03bH
	DB	0aeH
	DB	03bH
	DB	0b6H
	DB	03bH
	DB	0b6H
	DB	05bH
	DB	0b6H
	DB	05bH
	DB	0beH
	DB	07bH
	DB	0beH
	DB	07cH
	DB	0beH
	DB	07bH
	DB	0beH
	DB	09cH
	DB	0c6H
	DB	07bH
	DB	0beH
	DB	07bH
	DB	0beH
	DB	05bH
	DB	0beH
	DB	05bH
	DB	0b6H
	DB	05bH
	DB	0b6H
	DB	03bH
	DB	0b6H
	DB	03bH
	DB	0b6H
	DB	03bH
	DB	0b6H
	DB	01bH
	DB	0b6H
	DB	01aH
	DB	0b6H
	DB	01bH
	DB	0aeH
	DB	01bH
	DB	0aeH
	DB	03bH
	DB	0b6H
	DB	01bH
	DB	0aeH
	DB	01aH
	DB	0aeH
	DB	01aH
	DB	0aeH
	DB	03bH
	DB	0aeH
	DB	01bH
	DB	0aeH
	DB	03bH
	DB	0b6H
	DB	03bH
	DB	0b6H
	DB	09aH
	DB	075H
	DB	09aH
	DB	07dH
	DB	079H
	DB	07dH
	DB	07aH
	DB	075H
	DB	059H
	DB	06dH
	DB	059H
	DB	06dH
	DB	059H
	DB	06dH
	DB	039H
	DB	06dH
	DB	039H
	DB	065H
	DB	039H
	DB	065H
	DB	039H
	DB	06dH
	DB	039H
	DB	06dH
	DB	039H
	DB	06dH
	DB	039H
	DB	06dH
	DB	059H
	DB	06dH
	DB	059H
	DB	06dH
	DB	079H
	DB	075H
	DB	07aH
	DB	075H
	DB	079H
	DB	06dH
	DB	059H
	DB	075H
	DB	07aH
	DB	075H
	DB	079H
	DB	075H
	DB	07aH
	DB	075H
	DB	079H
	DB	075H
	DB	079H
	DB	075H
	DB	07aH
	DB	075H
	DB	09aH
	DB	07dH
	DB	079H
	DB	075H
	DB	079H
	DB	075H
	DB	079H
	DB	075H
	DB	05aH
	DB	075H
	DB	059H
	DB	075H
	DB	079H
	DB	075H
	DB	059H
	DB	075H
	DB	079H
	DB	075H
	DB	07aH
	DB	075H
	DB	079H
	DB	075H
	DB	099H
	DB	075H
	DB	099H
	DB	075H
	DB	079H
	DB	075H
	DB	09aH
	DB	07dH
	DB	079H
	DB	075H
	DB	079H
	DB	075H
	DB	079H
	DB	075H
	DB	059H
	DB	075H
	DB	079H
	DB	075H
	DB	059H
	DB	075H
	DB	059H
	DB	075H
	DB	059H
	DB	075H
	DB	059H
	DB	075H
	DB	079H
	DB	075H
	DB	07aH
	DB	075H
	DB	07aH
	DB	075H
	DB	079H
	DB	075H
	DB	07aH
	DB	075H
	DB	07aH
	DB	075H
	DB	079H
	DB	075H
	DB	07aH
	DB	075H
	DB	079H
	DB	075H
	DB	07aH
	DB	075H
	DB	07aH
	DB	075H
	DB	079H
	DB	075H
	DB	079H
	DB	075H
	DB	079H
	DB	07dH
	DB	079H
	DB	075H
	DB	059H
	DB	075H
	DB	079H
	DB	075H
	DB	079H
	DB	075H
	DB	07aH
	DB	075H
	DB	079H
	DB	075H
	DB	059H
	DB	075H
	DB	039H
	DB	06dH
	DB	019H
	DB	065H
	DB	039H
	DB	06dH
	DB	019H
	DB	06dH
	DB	038H
	DB	065H
	DB	019H
	DB	065H
	DB	039H
	DB	06dH
	DB	019H
	DB	06dH
	DB	039H
	DB	06dH
	DB	039H
	DB	06dH
	DB	039H
	DB	06dH
	DB	059H
	DB	075H
	DB	039H
	DB	06dH
	DB	039H
	DB	06dH
	DB	059H
	DB	075H
	DB	059H
	DB	075H
	DB	059H
	DB	075H
	DB	059H
	DB	075H
	DB	059H
	DB	075H
	DB	059H
	DB	07dH
	DB	059H
	DB	075H
	DB	059H
	DB	075H
	DB	059H
	DB	075H
	DB	079H
	DB	07dH
	DB	059H
	DB	07dH
	DB	059H
	DB	075H
	DB	07aH
	DB	07dH
	DB	059H
	DB	075H
	DB	079H
	DB	075H
	DB	07aH
	DB	07dH
	DB	059H
	DB	07dH
	DB	07aH
	DB	07dH
	DB	05aH
	DB	07dH
	DB	059H
	DB	07dH
	DB	079H
	DB	07dH
	DB	07aH
	DB	07dH
	DB	07aH
	DB	07dH
	DB	079H
	DB	07dH
	DB	079H
	DB	07dH
	DB	07aH
	DB	085H
	DB	079H
	DB	07dH
	DB	09aH
	DB	07dH
	DB	09aH
	DB	085H
	DB	099H
	DB	07dH
	DB	079H
	DB	07dH
	DB	07aH
	DB	07dH
	DB	099H
	DB	085H
	DB	099H
	DB	085H
	DB	09aH
	DB	085H
	DB	09aH
	DB	085H
	DB	09aH
	DB	085H
	DB	0baH
	DB	08dH
	DB	0baH
	DB	08dH
	DB	0baH
	DB	08dH
	DB	0baH
	DB	08dH
	DB	0daH
	DB	08dH
	DB	0baH
	DB	08dH
	DB	0daH
	DB	08dH
	DB	0daH
	DB	08dH
	DB	0daH
	DB	095H
	DB	0baH
	DB	08dH
	DB	0daH
	DB	095H
	DB	0daH
	DB	08dH
	DB	0daH
	DB	095H
	DB	0dbH
	DB	08dH
	DB	0daH
	DB	095H
	DB	0daH
	DB	08dH
	DB	0dbH
	DB	095H
	DB	0daH
	DB	095H
	DB	0daH
	DB	095H
	DB	0dbH
	DB	095H
	DB	0daH
	DB	095H
	DB	0daH
	DB	095H
	DB	0dbH
	DB	095H
	DB	0daH
	DB	095H
	DB	0daH
	DB	095H
	DB	0dbH
	DB	095H
	DB	0daH
	DB	095H
	DB	0daH
	DB	095H
	DB	0daH
	DB	09dH
	DB	0daH
	DB	095H
	DB	0daH
	DB	095H
	DB	0daH
	DB	095H
	DB	0fbH
	DB	09dH
	DB	01bH
	DB	0a6H
	DB	01bH
	DB	0a6H
	DB	01aH
	DB	0a6H
	DB	0faH
	DB	09dH
	DB	0faH
	DB	09dH
	DB	0faH
	DB	0a5H
	DB	0faH
	DB	09dH
	DB	0faH
	DB	09dH
	DB	01bH
	DB	0a6H
	DB	01aH
	DB	0a6H
	DB	01bH
	DB	0a6H
	DB	01bH
	DB	0a6H
	DB	01aH
	DB	0aeH
	DB	01bH
	DB	0a6H
	DB	01aH
	DB	0a6H
	DB	01aH
	DB	0a6H
	DB	0faH
	DB	0a5H
	DB	0fbH
	DB	0a5H
	DB	0faH
	DB	09dH
	DB	0faH
	DB	09dH
	DB	01bH
	DB	0a6H
	DB	01bH
	DB	0aeH
	DB	0faH
	DB	0a5H
	DB	0daH
	DB	09dH
	DB	0daH
	DB	09dH
	DB	0daH
	DB	09dH
	DB	0daH
	DB	09dH
	DB	0daH
	DB	09dH
	DB	0daH
	DB	09dH
	DB	0daH
	DB	09dH
	DB	0baH
	DB	09dH
	DB	0daH
	DB	09dH
	DB	0baH
	DB	09dH
	DB	0baH
	DB	09dH
	DB	0daH
	DB	09dH
	DB	0daH
	DB	09dH
	DB	0daH
	DB	09dH
	DB	0faH
	DB	0a5H
	DB	0daH
	DB	09dH
	DB	0fbH
	DB	0a5H
	DB	01bH
	DB	0a6H
	DB	01aH
	DB	0aeH
	DB	01bH
	DB	0a6H
	DB	01bH
	DB	0a6H
	DB	03aH
	DB	0aeH
	DB	01bH
	DB	0aeH
	DB	01bH
	DB	0a6H
	DB	01bH
	DB	0a6H
	DB	01aH
	DB	0aeH
	DB	01aH
	DB	0a6H
	DB	01bH
	DB	0a6H
	DB	01bH
	DB	0aeH
	DB	01aH
	DB	0aeH
	DB	01bH
	DB	0a6H
	DB	01aH
	DB	0aeH
	DB	01bH
	DB	0aeH
	DB	03aH
	DB	0b6H
	DB	03aH
	DB	0b6H
	DB	03bH
	DB	0b6H
	DB	03bH
	DB	0b6H
	DB	05bH
	DB	0b6H
	DB	05bH
	DB	0beH
	DB	07cH
	DB	0beH
	DB	07cH
	DB	0beH
	DB	09cH
	DB	0c6H
	DB	07bH
	DB	0beH
	DB	05bH
	DB	0beH
	DB	05bH
	DB	0beH
	DB	03bH
	DB	0b6H
	DB	03bH
	DB	0b6H
	DB	03bH
	DB	0b6H
	DB	01bH
	DB	0b6H
	DB	03aH
	DB	0b6H
	DB	01bH
	DB	0aeH
	DB	01bH
	DB	0aeH
	DB	03aH
	DB	0aeH
	DB	01aH
	DB	0aeH
	DB	01bH
	DB	0aeH
	DB	01bH
	DB	0aeH
	DB	01aH
	DB	0aeH
	DB	01bH
	DB	0aeH
	DB	01bH
	DB	0aeH
	DB	03aH
	DB	0aeH
	DB	01bH
	DB	0aeH
	DB	03bH
	DB	0aeH
	DB	099H
	DB	075H
	DB	09aH
	DB	075H
	DB	09aH
	DB	075H
	DB	09aH
	DB	07dH
	DB	079H
	DB	075H
	DB	079H
	DB	075H
	DB	059H
	DB	06dH
	DB	079H
	DB	075H
	DB	059H
	DB	06dH
	DB	059H
	DB	06dH
	DB	039H
	DB	065H
	DB	039H
	DB	065H
	DB	039H
	DB	065H
	DB	059H
	DB	06dH
	DB	079H
	DB	06dH
	DB	059H
	DB	06dH
	DB	059H
	DB	06dH
	DB	07aH
	DB	075H
	DB	07aH
	DB	075H
	DB	07aH
	DB	075H
	DB	079H
	DB	075H
	DB	09aH
	DB	075H
	DB	09aH
	DB	07dH
	DB	09aH
	DB	075H
	DB	079H
	DB	075H
	DB	079H
	DB	075H
	DB	079H
	DB	075H
	DB	059H
	DB	075H
	DB	059H
	DB	06dH
	DB	059H
	DB	075H
	DB	07aH
	DB	075H
	DB	07aH
	DB	075H
	DB	07aH
	DB	075H
	DB	059H
	DB	06dH
	DB	079H
	DB	06dH
	DB	059H
	DB	075H
	DB	07aH
	DB	075H
	DB	09aH
	DB	075H
	DB	09aH
	DB	07dH
	DB	079H
	DB	075H
	DB	079H
	DB	075H
	DB	07aH
	DB	075H
	DB	059H
	DB	075H
	DB	05aH
	DB	06dH
	DB	07aH
	DB	075H
	DB	059H
	DB	075H
	DB	059H
	DB	06dH
	DB	07aH
	DB	075H
	DB	07aH
	DB	075H
	DB	059H
	DB	075H
	DB	059H
	DB	075H
	DB	05aH
	DB	075H
	DB	079H
	DB	075H
	DB	079H
	DB	075H
	DB	079H
	DB	075H
	DB	079H
	DB	075H
	DB	07aH
	DB	075H
	DB	07aH
	DB	075H
	DB	07aH
	DB	075H
	DB	079H
	DB	075H
	DB	07aH
	DB	075H
	DB	079H
	DB	075H
	DB	059H
	DB	075H
	DB	059H
	DB	075H
	DB	059H
	DB	075H
	DB	05aH
	DB	075H
	DB	079H
	DB	07dH
	DB	07aH
	DB	07dH
	DB	07aH
	DB	075H
	DB	079H
	DB	07dH
	DB	079H
	DB	075H
	DB	079H
	DB	075H
	DB	059H
	DB	075H
	DB	039H
	DB	06dH
	DB	079H
	DB	075H
	DB	09aH
	DB	07dH
	DB	079H
	DB	075H
	DB	059H
	DB	075H
	DB	059H
	DB	075H
	DB	079H
	DB	075H
	DB	059H
	DB	075H
	DB	059H
	DB	075H
	DB	059H
	DB	075H
	DB	059H
	DB	075H
	DB	059H
	DB	075H
	DB	059H
	DB	075H
	DB	059H
	DB	075H
	DB	059H
	DB	075H
	DB	059H
	DB	075H
	DB	059H
	DB	075H
	DB	059H
	DB	075H
	DB	059H
	DB	075H
	DB	059H
	DB	075H
	DB	059H
	DB	075H
	DB	07aH
	DB	07dH
	DB	079H
	DB	075H
	DB	059H
	DB	075H
	DB	059H
	DB	075H
	DB	07aH
	DB	075H
	DB	079H
	DB	075H
	DB	079H
	DB	075H
	DB	05aH
	DB	07dH
	DB	07aH
	DB	075H
	DB	059H
	DB	075H
	DB	079H
	DB	07dH
	DB	079H
	DB	07dH
	DB	07aH
	DB	07dH
	DB	07aH
	DB	07dH
	DB	07aH
	DB	07dH
	DB	09aH
	DB	085H
	DB	09aH
	DB	07dH
	DB	07aH
	DB	07dH
	DB	09aH
	DB	085H
	DB	09aH
	DB	085H
	DB	09aH
	DB	085H
	DB	09aH
	DB	085H
	DB	09aH
	DB	085H
	DB	0baH
	DB	085H
	DB	09aH
	DB	085H
	DB	09aH
	DB	085H
	DB	0baH
	DB	085H
	DB	0baH
	DB	08dH
	DB	0baH
	DB	085H
	DB	0baH
	DB	08dH
	DB	0baH
	DB	08dH
	DB	0baH
	DB	08dH
	DB	0baH
	DB	08dH
	DB	0daH
	DB	08dH
	DB	0daH
	DB	08dH
	DB	0daH
	DB	095H
	DB	0daH
	DB	08dH
	DB	0dbH
	DB	095H
	DB	0daH
	DB	08dH
	DB	0daH
	DB	08dH
	DB	0daH
	DB	08dH
	DB	0dbH
	DB	095H
	DB	0baH
	DB	08dH
	DB	0daH
	DB	08dH
	DB	0baH
	DB	08dH
	DB	0daH
	DB	08dH
	DB	0baH
	DB	08dH
	DB	0baH
	DB	095H
	DB	0daH
	DB	095H
	DB	0dbH
	DB	095H
	DB	0baH
	DB	095H
	DB	0daH
	DB	095H
	DB	0daH
	DB	095H
	DB	0daH
	DB	095H
	DB	0daH
	DB	095H
	DB	0daH
	DB	095H
	DB	0daH
	DB	095H
	DB	0daH
	DB	095H
	DB	0fbH
	DB	09dH
	DB	01bH
	DB	0a6H
	DB	03bH
	DB	0a6H
	DB	0fbH
	DB	09dH
	DB	0faH
	DB	09dH
	DB	0daH
	DB	09dH
	DB	0faH
	DB	09dH
	DB	0faH
	DB	09dH
	DB	0fbH
	DB	09dH
	DB	0fbH
	DB	0a5H
	DB	01bH
	DB	0a6H
	DB	0faH
	DB	0a5H
	DB	01bH
	DB	0a6H
	DB	01bH
	DB	0a6H
	DB	01aH
	DB	0a6H
	DB	01aH
	DB	0a6H
	DB	0fbH
	DB	0a5H
	DB	0fbH
	DB	0a5H
	DB	0faH
	DB	0a5H
	DB	0faH
	DB	0a5H
	DB	0daH
	DB	09dH
	DB	0fbH
	DB	0a5H
	DB	03bH
	DB	0aeH
	DB	0fbH
	DB	0a5H
	DB	0daH
	DB	09dH
	DB	0daH
	DB	09dH
	DB	0daH
	DB	09dH
	DB	0daH
	DB	09dH
	DB	0baH
	DB	09dH
	DB	0daH
	DB	09dH
	DB	0baH
	DB	095H
	DB	0baH
	DB	095H
	DB	0daH
	DB	095H
	DB	0baH
	DB	095H
	DB	0baH
	DB	095H
	DB	0baH
	DB	095H
	DB	0baH
	DB	095H
	DB	0baH
	DB	095H
	DB	0baH
	DB	09dH
	DB	0daH
	DB	09dH
	DB	0daH
	DB	09dH
	DB	0faH
	DB	09dH
	DB	01bH
	DB	0a6H
	DB	01aH
	DB	0aeH
	DB	01aH
	DB	0a6H
	DB	01bH
	DB	0a6H
	DB	03bH
	DB	0a6H
	DB	01bH
	DB	0aeH
	DB	01bH
	DB	0a6H
	DB	03bH
	DB	0aeH
	DB	01bH
	DB	0a6H
	DB	01bH
	DB	0a6H
	DB	01aH
	DB	0a6H
	DB	0fbH
	DB	0a5H
	DB	0faH
	DB	0a5H
	DB	0faH
	DB	0a5H
	DB	0fbH
	DB	0a5H
	DB	01bH
	DB	0a6H
	DB	01bH
	DB	0aeH
	DB	01bH
	DB	0aeH
	DB	01aH
	DB	0aeH
	DB	03bH
	DB	0b6H
	DB	05bH
	DB	0b6H
	DB	05bH
	DB	0b6H
	DB	07cH
	DB	0b6H
	DB	07cH
	DB	0beH
	DB	09bH
	DB	0beH
	DB	07bH
	DB	0beH
	DB	05bH
	DB	0beH
	DB	05bH
	DB	0beH
	DB	05bH
	DB	0b6H
	DB	05bH
	DB	0b6H
	DB	03bH
	DB	0b6H
	DB	05bH
	DB	0b6H
	DB	03aH
	DB	0b6H
	DB	01aH
	DB	0aeH
	DB	03bH
	DB	0aeH
	DB	01bH
	DB	0aeH
	DB	01bH
	DB	0aeH
	DB	01aH
	DB	0aeH
	DB	01aH
	DB	0aeH
	DB	01aH
	DB	0aeH
	DB	01bH
	DB	0aeH
	DB	01bH
	DB	0aeH
	DB	01aH
	DB	0aeH
	DB	01bH
	DB	0aeH
	DB	01bH
	DB	0aeH
	DB	01aH
	DB	0aeH
	DB	07aH
	DB	075H
	DB	09aH
	DB	075H
	DB	09aH
	DB	075H
	DB	09aH
	DB	07dH
	DB	09aH
	DB	07dH
	DB	09aH
	DB	075H
	DB	07aH
	DB	075H
	DB	07aH
	DB	075H
	DB	09aH
	DB	07dH
	DB	09aH
	DB	07dH
	DB	079H
	DB	06dH
	DB	059H
	DB	06dH
	DB	059H
	DB	06dH
	DB	079H
	DB	06dH
	DB	07aH
	DB	06dH
	DB	07aH
	DB	06dH
	DB	079H
	DB	075H
	DB	07aH
	DB	075H
	DB	09aH
	DB	075H
	DB	079H
	DB	075H
	DB	09aH
	DB	075H
	DB	09aH
	DB	07dH
	DB	099H
	DB	07dH
	DB	07aH
	DB	075H
	DB	07aH
	DB	075H
	DB	07aH
	DB	075H
	DB	07aH
	DB	075H
	DB	09aH
	DB	075H
	DB	09aH
	DB	075H
	DB	07aH
	DB	075H
	DB	079H
	DB	075H
	DB	079H
	DB	075H
	DB	07aH
	DB	075H
	DB	07aH
	DB	075H
	DB	079H
	DB	06dH
	DB	05aH
	DB	075H
	DB	079H
	DB	06dH
	DB	07aH
	DB	075H
	DB	07aH
	DB	075H
	DB	079H
	DB	075H
	DB	079H
	DB	075H
	DB	07aH
	DB	075H
	DB	05aH
	DB	075H
	DB	079H
	DB	06dH
	DB	059H
	DB	075H
	DB	079H
	DB	075H
	DB	07aH
	DB	075H
	DB	07aH
	DB	075H
	DB	05aH
	DB	075H
	DB	079H
	DB	075H
	DB	07aH
	DB	075H
	DB	07aH
	DB	075H
	DB	079H
	DB	075H
	DB	07aH
	DB	07dH
	DB	07aH
	DB	07dH
	DB	07aH
	DB	07dH
	DB	079H
	DB	07dH
	DB	07aH
	DB	075H
	DB	079H
	DB	075H
	DB	07aH
	DB	07dH
	DB	07aH
	DB	075H
	DB	07aH
	DB	075H
	DB	07aH
	DB	075H
	DB	07aH
	DB	075H
	DB	07aH
	DB	075H
	DB	07aH
	DB	075H
	DB	09aH
	DB	07dH
	DB	07aH
	DB	07dH
	DB	079H
	DB	07dH
	DB	09aH
	DB	07dH
	DB	09aH
	DB	07dH
	DB	09aH
	DB	07dH
	DB	0baH
	DB	085H
	DB	0baH
	DB	085H
	DB	0baH
	DB	085H
	DB	0baH
	DB	085H
	DB	0baH
	DB	085H
	DB	0baH
	DB	085H
	DB	0baH
	DB	085H
	DB	0baH
	DB	085H
	DB	09aH
	DB	07dH
	DB	09aH
	DB	07dH
	DB	099H
	DB	07dH
	DB	07aH
	DB	07dH
	DB	07aH
	DB	07dH
	DB	079H
	DB	07dH
	DB	079H
	DB	07dH
	DB	079H
	DB	07dH
	DB	07aH
	DB	07dH
	DB	079H
	DB	07dH
	DB	09aH
	DB	07dH
	DB	09aH
	DB	085H
	DB	09aH
	DB	07dH
	DB	07aH
	DB	07dH
	DB	079H
	DB	075H
	DB	07aH
	DB	075H
	DB	07aH
	DB	07dH
	DB	07aH
	DB	07dH
	DB	059H
	DB	07dH
	DB	059H
	DB	07dH
	DB	079H
	DB	075H
	DB	079H
	DB	075H
	DB	059H
	DB	075H
	DB	079H
	DB	07dH
	DB	07aH
	DB	07dH
	DB	07aH
	DB	07dH
	DB	079H
	DB	07dH
	DB	079H
	DB	07dH
	DB	09aH
	DB	07dH
	DB	099H
	DB	085H
	DB	09aH
	DB	085H
	DB	099H
	DB	085H
	DB	079H
	DB	085H
	DB	09aH
	DB	085H
	DB	09aH
	DB	085H
	DB	09aH
	DB	085H
	DB	09aH
	DB	085H
	DB	0baH
	DB	085H
	DB	0baH
	DB	085H
	DB	0baH
	DB	08dH
	DB	0baH
	DB	08dH
	DB	0daH
	DB	08dH
	DB	0daH
	DB	08dH
	DB	0baH
	DB	08dH
	DB	0daH
	DB	08dH
	DB	0baH
	DB	08dH
	DB	0baH
	DB	08dH
	DB	0baH
	DB	08dH
	DB	0daH
	DB	095H
	DB	0baH
	DB	08dH
	DB	0baH
	DB	095H
	DB	0daH
	DB	08dH
	DB	0daH
	DB	08dH
	DB	0daH
	DB	095H
	DB	0daH
	DB	095H
	DB	0daH
	DB	08dH
	DB	0baH
	DB	08dH
	DB	0baH
	DB	095H
	DB	0daH
	DB	095H
	DB	0daH
	DB	08dH
	DB	0dbH
	DB	095H
	DB	0daH
	DB	08dH
	DB	0baH
	DB	08dH
	DB	0baH
	DB	08dH
	DB	0daH
	DB	095H
	DB	0dbH
	DB	095H
	DB	0dbH
	DB	095H
	DB	0daH
	DB	095H
	DB	0daH
	DB	095H
	DB	0dbH
	DB	095H
	DB	0faH
	DB	09dH
	DB	01bH
	DB	09eH
	DB	01bH
	DB	09eH
	DB	0faH
	DB	09dH
	DB	0daH
	DB	09dH
	DB	0faH
	DB	09dH
	DB	0daH
	DB	09dH
	DB	0faH
	DB	09dH
	DB	0fbH
	DB	09dH
	DB	0faH
	DB	0a5H
	DB	01aH
	DB	0a6H
	DB	0fbH
	DB	0a5H
	DB	01bH
	DB	0a6H
	DB	0faH
	DB	0a5H
	DB	01aH
	DB	0a6H
	DB	0faH
	DB	0a5H
	DB	0faH
	DB	09dH
	DB	0faH
	DB	09dH
	DB	0faH
	DB	09dH
	DB	0fbH
	DB	09dH
	DB	0daH
	DB	09dH
	DB	0faH
	DB	09dH
	DB	01bH
	DB	0a6H
	DB	01aH
	DB	0a6H
	DB	0daH
	DB	09dH
	DB	0baH
	DB	095H
	DB	0baH
	DB	095H
	DB	0baH
	DB	095H
	DB	0baH
	DB	095H
	DB	0baH
	DB	095H
	DB	0baH
	DB	095H
	DB	0baH
	DB	095H
	DB	0baH
	DB	09dH
	DB	0baH
	DB	095H
	DB	0baH
	DB	095H
	DB	0baH
	DB	095H
	DB	0baH
	DB	095H
	DB	0baH
	DB	095H
	DB	0baH
	DB	095H
	DB	0baH
	DB	095H
	DB	0daH
	DB	09dH
	DB	0dbH
	DB	09dH
	DB	0dbH
	DB	09dH
	DB	0fbH
	DB	0a5H
	DB	01bH
	DB	0a6H
	DB	01bH
	DB	0a6H
	DB	01bH
	DB	0aeH
	DB	01bH
	DB	0aeH
	DB	01bH
	DB	0aeH
	DB	01bH
	DB	0a6H
	DB	01aH
	DB	0a6H
	DB	01aH
	DB	0a6H
	DB	0faH
	DB	0a5H
	DB	0faH
	DB	0a5H
	DB	0faH
	DB	0a5H
	DB	0faH
	DB	0a5H
	DB	0faH
	DB	09dH
	DB	0faH
	DB	0a5H
	DB	0faH
	DB	0a5H
	DB	0faH
	DB	0a5H
	DB	0fbH
	DB	0adH
	DB	03bH
	DB	0aeH
	DB	03bH
	DB	0b6H
	DB	03bH
	DB	0b6H
	DB	03bH
	DB	0b6H
	DB	07bH
	DB	0beH
	DB	05bH
	DB	0beH
	DB	07cH
	DB	0beH
	DB	07bH
	DB	0beH
	DB	05bH
	DB	0beH
	DB	05bH
	DB	0b6H
	DB	03bH
	DB	0b6H
	DB	05bH
	DB	0b6H
	DB	03bH
	DB	0b6H
	DB	03bH
	DB	0b6H
	DB	03bH
	DB	0b6H
	DB	01bH
	DB	0aeH
	DB	01aH
	DB	0aeH
	DB	01aH
	DB	0aeH
	DB	01aH
	DB	0aeH
	DB	0faH
	DB	0adH
	DB	0fbH
	DB	0a5H
	DB	0faH
	DB	0a5H
	DB	0faH
	DB	0a5H
	DB	0fbH
	DB	0adH
	DB	0faH
	DB	0adH
	DB	01aH
	DB	0a6H
	DB	01bH
	DB	0aeH
	DB	01bH
	DB	0aeH
	DB	01aH
	DB	0aeH
	DB	079H
	DB	075H
	DB	079H
	DB	075H
	DB	09aH
	DB	075H
	DB	079H
	DB	075H
	DB	079H
	DB	075H
	DB	07aH
	DB	075H
	DB	09aH
	DB	075H
	DB	09aH
	DB	07dH
	DB	09aH
	DB	07dH
	DB	09aH
	DB	07dH
	DB	09aH
	DB	07dH
	DB	07aH
	DB	075H
	DB	09aH
	DB	075H
	DB	07aH
	DB	075H
	DB	07aH
	DB	075H
	DB	07aH
	DB	075H
	DB	079H
	DB	075H
	DB	07aH
	DB	075H
	DB	079H
	DB	075H
	DB	09aH
	DB	075H
	DB	09aH
	DB	07dH
	DB	09aH
	DB	07dH
	DB	0baH
	DB	07dH
	DB	099H
	DB	07dH
	DB	079H
	DB	075H
	DB	07aH
	DB	075H
	DB	099H
	DB	075H
	DB	079H
	DB	075H
	DB	09aH
	DB	075H
	DB	09aH
	DB	07dH
	DB	07aH
	DB	075H
	DB	099H
	DB	075H
	DB	07aH
	DB	075H
	DB	07aH
	DB	075H
	DB	09aH
	DB	075H
	DB	079H
	DB	075H
	DB	079H
	DB	075H
	DB	059H
	DB	06dH
	DB	079H
	DB	075H
	DB	05aH
	DB	075H
	DB	079H
	DB	075H
	DB	079H
	DB	075H
	DB	079H
	DB	075H
	DB	059H
	DB	06dH
	DB	059H
	DB	075H
	DB	07aH
	DB	075H
	DB	079H
	DB	075H
	DB	059H
	DB	075H
	DB	079H
	DB	075H
	DB	079H
	DB	075H
	DB	079H
	DB	075H
	DB	07aH
	DB	075H
	DB	079H
	DB	075H
	DB	079H
	DB	075H
	DB	09aH
	DB	07dH
	DB	079H
	DB	07dH
	DB	079H
	DB	075H
	DB	079H
	DB	075H
	DB	07aH
	DB	075H
	DB	079H
	DB	07dH
	DB	07aH
	DB	07dH
	DB	079H
	DB	075H
	DB	079H
	DB	07dH
	DB	09aH
	DB	07dH
	DB	09aH
	DB	07dH
	DB	099H
	DB	07dH
	DB	07aH
	DB	075H
	DB	099H
	DB	075H
	DB	09aH
	DB	07dH
	DB	09aH
	DB	075H
	DB	07aH
	DB	075H
	DB	079H
	DB	07dH
	DB	09aH
	DB	07dH
	DB	0baH
	DB	085H
	DB	0baH
	DB	085H
	DB	09aH
	DB	085H
	DB	0baH
	DB	085H
	DB	0baH
	DB	085H
	DB	0baH
	DB	085H
	DB	0baH
	DB	085H
	DB	09aH
	DB	085H
	DB	099H
	DB	07dH
	DB	099H
	DB	07dH
	DB	09aH
	DB	07dH
	DB	099H
	DB	07dH
	DB	09aH
	DB	07dH
	DB	09aH
	DB	07dH
	DB	09aH
	DB	07dH
	DB	099H
	DB	07dH
	DB	0baH
	DB	085H
	DB	0baH
	DB	085H
	DB	0baH
	DB	085H
	DB	099H
	DB	07dH
	DB	099H
	DB	07dH
	DB	059H
	DB	075H
	DB	059H
	DB	07dH
	DB	07aH
	DB	07dH
	DB	079H
	DB	075H
	DB	079H
	DB	07dH
	DB	07aH
	DB	07dH
	DB	059H
	DB	075H
	DB	079H
	DB	075H
	DB	079H
	DB	07dH
	DB	07aH
	DB	07dH
	DB	079H
	DB	07dH
	DB	079H
	DB	07dH
	DB	07aH
	DB	07dH
	DB	079H
	DB	07dH
	DB	079H
	DB	085H
	DB	09aH
	DB	07dH
	DB	09aH
	DB	085H
	DB	09aH
	DB	07dH
	DB	09aH
	DB	085H
	DB	09aH
	DB	085H
	DB	0baH
	DB	085H
	DB	0baH
	DB	085H
	DB	0baH
	DB	085H
	DB	0baH
	DB	08dH
	DB	0baH
	DB	08dH
	DB	0baH
	DB	08dH
	DB	0baH
	DB	08dH
	DB	0daH
	DB	08dH
	DB	0baH
	DB	08dH
	DB	0daH
	DB	08dH
	DB	0daH
	DB	08dH
	DB	0baH
	DB	08dH
	DB	0daH
	DB	08dH
	DB	0baH
	DB	08dH
	DB	0baH
	DB	08dH
	DB	0dbH
	DB	08dH
	DB	0baH
	DB	08dH
	DB	0baH
	DB	08dH
	DB	0daH
	DB	08dH
	DB	0baH
	DB	08dH
	DB	0baH
	DB	08dH
	DB	0baH
	DB	08dH
	DB	0baH
	DB	08dH
	DB	0daH
	DB	08dH
	DB	0daH
	DB	08dH
	DB	0baH
	DB	095H
	DB	0baH
	DB	08dH
	DB	0daH
	DB	095H
	DB	0daH
	DB	08dH
	DB	0baH
	DB	08dH
	DB	0daH
	DB	08dH
	DB	0daH
	DB	08dH
	DB	0daH
	DB	08dH
	DB	0daH
	DB	095H
	DB	0fbH
	DB	09dH
	DB	0fbH
	DB	09dH
	DB	0fbH
	DB	09dH
	DB	0faH
	DB	09dH
	DB	0daH
	DB	095H
	DB	0daH
	DB	095H
	DB	0faH
	DB	095H
	DB	0faH
	DB	09dH
	DB	0faH
	DB	09dH
	DB	0fbH
	DB	09dH
	DB	01aH
	DB	09eH
	DB	01aH
	DB	09eH
	DB	01bH
	DB	0a6H
	DB	01bH
	DB	0a6H
	DB	0faH
	DB	09dH
	DB	01bH
	DB	0a6H
	DB	0faH
	DB	09dH
	DB	0fbH
	DB	09dH
	DB	0faH
	DB	09dH
	DB	0fbH
	DB	09dH
	DB	0daH
	DB	09dH
	DB	0daH
	DB	09dH
	DB	0fbH
	DB	0a5H
	DB	0faH
	DB	09dH
	DB	0faH
	DB	09dH
	DB	0daH
	DB	09dH
	DB	0daH
	DB	095H
	DB	0daH
	DB	095H
	DB	0daH
	DB	09dH
	DB	0baH
	DB	095H
	DB	0baH
	DB	095H
	DB	0baH
	DB	095H
	DB	0baH
	DB	095H
	DB	0daH
	DB	095H
	DB	0b9H
	DB	095H
	DB	0baH
	DB	095H
	DB	0baH
	DB	095H
	DB	0daH
	DB	095H
	DB	0baH
	DB	095H
	DB	0baH
	DB	095H
	DB	0baH
	DB	095H
	DB	0daH
	DB	095H
	DB	0daH
	DB	09dH
	DB	0daH
	DB	09dH
	DB	01aH
	DB	0a6H
	DB	0faH
	DB	0a5H
	DB	0faH
	DB	0a5H
	DB	01bH
	DB	0a6H
	DB	01bH
	DB	0a6H
	DB	01bH
	DB	0aeH
	DB	01bH
	DB	0a6H
	DB	0fbH
	DB	0a5H
	DB	0faH
	DB	0a5H
	DB	0fbH
	DB	0a5H
	DB	0daH
	DB	09dH
	DB	0fbH
	DB	09dH
	DB	0daH
	DB	09dH
	DB	0daH
	DB	09dH
	DB	0daH
	DB	09dH
	DB	0dbH
	DB	09dH
	DB	0faH
	DB	0a5H
	DB	0faH
	DB	0a5H
	DB	01bH
	DB	0aeH
	DB	03bH
	DB	0aeH
	DB	03bH
	DB	0b6H
	DB	03bH
	DB	0b6H
	DB	05bH
	DB	0b6H
	DB	05bH
	DB	0b6H
	DB	07cH
	DB	0beH
	DB	07bH
	DB	0beH
	DB	05cH
	DB	0beH
	DB	05bH
	DB	0beH
	DB	03bH
	DB	0b6H
	DB	03bH
	DB	0b6H
	DB	03bH
	DB	0b6H
	DB	01bH
	DB	0b6H
	DB	03aH
	DB	0b6H
	DB	01bH
	DB	0aeH
	DB	0faH
	DB	0adH
	DB	0faH
	DB	0a5H
	DB	01bH
	DB	0a6H
	DB	0faH
	DB	0a5H
	DB	0faH
	DB	0a5H
	DB	0faH
	DB	0a5H
	DB	0fbH
	DB	0a5H
	DB	0faH
	DB	0a5H
	DB	0faH
	DB	0a5H
	DB	0faH
	DB	0a5H
	DB	0fbH
	DB	0a5H
	DB	0faH
	DB	0a5H
	DB	01bH
	DB	0aeH
	DB	01bH
	DB	0aeH
	DB	07aH
	DB	075H
	DB	07aH
	DB	075H
	DB	07aH
	DB	06dH
	DB	07aH
	DB	075H
	DB	07aH
	DB	075H
	DB	07aH
	DB	075H
	DB	079H
	DB	075H
	DB	09aH
	DB	075H
	DB	09aH
	DB	07dH
	DB	0baH
	DB	07dH
	DB	09aH
	DB	07dH
	DB	0baH
	DB	07dH
	DB	0baH
	DB	07dH
	DB	0baH
	DB	07dH
	DB	0baH
	DB	07dH
	DB	0baH
	DB	07dH
	DB	0baH
	DB	07dH
	DB	09aH
	DB	07dH
	DB	09aH
	DB	075H
	DB	09aH
	DB	07dH
	DB	09aH
	DB	07dH
	DB	099H
	DB	075H
	DB	09aH
	DB	075H
	DB	09aH
	DB	07dH
	DB	09aH
	DB	075H
	DB	09aH
	DB	075H
	DB	099H
	DB	075H
	DB	07aH
	DB	075H
	DB	09aH
	DB	075H
	DB	099H
	DB	075H
	DB	09aH
	DB	07dH
	DB	0baH
	DB	07dH
	DB	09aH
	DB	07dH
	DB	0baH
	DB	07dH
	DB	09aH
	DB	075H
	DB	07aH
	DB	075H
	DB	07aH
	DB	075H
	DB	079H
	DB	06dH
	DB	07aH
	DB	075H
	DB	07aH
	DB	075H
	DB	09aH
	DB	075H
	DB	07aH
	DB	075H
	DB	07aH
	DB	075H
	DB	07aH
	DB	075H
	DB	07aH
	DB	06dH
	DB	079H
	DB	075H
	DB	079H
	DB	06dH
	DB	07aH
	DB	06dH
	DB	09aH
	DB	075H
	DB	07aH
	DB	075H
	DB	07aH
	DB	075H
	DB	079H
	DB	075H
	DB	09aH
	DB	075H
	DB	09aH
	DB	07dH
	DB	07aH
	DB	075H
	DB	09aH
	DB	075H
	DB	09aH
	DB	075H
	DB	07aH
	DB	075H
	DB	07aH
	DB	075H
	DB	079H
	DB	075H
	DB	07aH
	DB	075H
	DB	07aH
	DB	075H
	DB	079H
	DB	075H
	DB	09aH
	DB	075H
	DB	099H
	DB	07dH
	DB	099H
	DB	075H
	DB	09aH
	DB	075H
	DB	09aH
	DB	075H
	DB	09aH
	DB	07dH
	DB	09aH
	DB	07dH
	DB	09aH
	DB	07dH
	DB	09aH
	DB	075H
	DB	09aH
	DB	07dH
	DB	0baH
	DB	07dH
	DB	0baH
	DB	085H
	DB	0baH
	DB	085H
	DB	0baH
	DB	085H
	DB	09aH
	DB	085H
	DB	09aH
	DB	085H
	DB	0baH
	DB	085H
	DB	0baH
	DB	085H
	DB	0baH
	DB	085H
	DB	09aH
	DB	085H
	DB	09aH
	DB	085H
	DB	0baH
	DB	07dH
	DB	0baH
	DB	085H
	DB	09aH
	DB	085H
	DB	0baH
	DB	085H
	DB	0baH
	DB	085H
	DB	0baH
	DB	085H
	DB	0baH
	DB	085H
	DB	0baH
	DB	085H
	DB	0baH
	DB	085H
	DB	09aH
	DB	085H
	DB	09aH
	DB	085H
	DB	079H
	DB	075H
	DB	059H
	DB	075H
	DB	07aH
	DB	075H
	DB	059H
	DB	075H
	DB	07aH
	DB	075H
	DB	07aH
	DB	07dH
	DB	07aH
	DB	07dH
	DB	09aH
	DB	07dH
	DB	09aH
	DB	07dH
	DB	09aH
	DB	07dH
	DB	0baH
	DB	085H
	DB	09aH
	DB	07dH
	DB	09aH
	DB	085H
	DB	09aH
	DB	085H
	DB	09aH
	DB	085H
	DB	09aH
	DB	085H
	DB	0baH
	DB	085H
	DB	0baH
	DB	085H
	DB	0baH
	DB	085H
	DB	0baH
	DB	085H
	DB	0baH
	DB	085H
	DB	0daH
	DB	08dH
	DB	0daH
	DB	08dH
	DB	0baH
	DB	08dH
	DB	0baH
	DB	085H
	DB	0daH
	DB	085H
	DB	0baH
	DB	085H
	DB	0baH
	DB	08dH
	DB	0baH
	DB	08dH
	DB	0baH
	DB	08dH
	DB	0dbH
	DB	08dH
	DB	0baH
	DB	08dH
	DB	0baH
	DB	08dH
	DB	0daH
	DB	08dH
	DB	0baH
	DB	08dH
	DB	0baH
	DB	08dH
	DB	0dbH
	DB	08dH
	DB	0baH
	DB	08dH
	DB	0dbH
	DB	095H
	DB	0dbH
	DB	08dH
	DB	0baH
	DB	08dH
	DB	0baH
	DB	08dH
	DB	0bbH
	DB	08dH
	DB	0daH
	DB	08dH
	DB	0baH
	DB	08dH
	DB	0bbH
	DB	08dH
	DB	0baH
	DB	08dH
	DB	0daH
	DB	095H
	DB	0daH
	DB	095H
	DB	0daH
	DB	095H
	DB	0dbH
	DB	095H
	DB	0fbH
	DB	09dH
	DB	0fbH
	DB	09dH
	DB	0faH
	DB	095H
	DB	0daH
	DB	095H
	DB	0daH
	DB	095H
	DB	0daH
	DB	095H
	DB	0daH
	DB	095H
	DB	0fbH
	DB	09dH
	DB	0fbH
	DB	09dH
	DB	0fbH
	DB	09dH
	DB	0faH
	DB	09dH
	DB	0fbH
	DB	09dH
	DB	01bH
	DB	0a6H
	DB	01bH
	DB	0a6H
	DB	0fbH
	DB	09dH
	DB	0faH
	DB	09dH
	DB	0faH
	DB	09dH
	DB	0daH
	DB	09dH
	DB	0dbH
	DB	09dH
	DB	0daH
	DB	09dH
	DB	0daH
	DB	09dH
	DB	0daH
	DB	095H
	DB	0fbH
	DB	0a5H
	DB	01aH
	DB	0a6H
	DB	0faH
	DB	09dH
	DB	0daH
	DB	095H
	DB	09aH
	DB	095H
	DB	0baH
	DB	095H
	DB	0baH
	DB	095H
	DB	0baH
	DB	095H
	DB	0baH
	DB	095H
	DB	0b9H
	DB	095H
	DB	0b9H
	DB	095H
	DB	0baH
	DB	095H
	DB	0b9H
	DB	095H
	DB	099H
	DB	08dH
	DB	0baH
	DB	095H
	DB	0baH
	DB	095H
	DB	0baH
	DB	095H
	DB	0b9H
	DB	095H
	DB	0baH
	DB	095H
	DB	0baH
	DB	095H
	DB	0daH
	DB	09dH
	DB	0faH
	DB	09dH
	DB	0dbH
	DB	09dH
	DB	0fbH
	DB	0a5H
	DB	0fbH
	DB	0a5H
	DB	01bH
	DB	0a6H
	DB	01bH
	DB	0a6H
	DB	01bH
	DB	0a6H
	DB	0fbH
	DB	0a5H
	DB	0faH
	DB	09dH
	DB	0faH
	DB	09dH
	DB	0faH
	DB	09dH
	DB	0daH
	DB	09dH
	DB	0daH
	DB	09dH
	DB	0daH
	DB	09dH
	DB	0daH
	DB	09dH
	DB	0daH
	DB	09dH
	DB	0daH
	DB	09dH
	DB	0dbH
	DB	09dH
	DB	0faH
	DB	09dH
	DB	0daH
	DB	09dH
	DB	0faH
	DB	0a5H
	DB	0faH
	DB	0a5H
	DB	01bH
	DB	0aeH
	DB	03bH
	DB	0b6H
	DB	03bH
	DB	0b6H
	DB	05bH
	DB	0b6H
	DB	05bH
	DB	0b6H
	DB	07bH
	DB	0beH
	DB	05cH
	DB	0beH
	DB	05bH
	DB	0b6H
	DB	03bH
	DB	0b6H
	DB	03bH
	DB	0b6H
	DB	03bH
	DB	0aeH
	DB	03bH
	DB	0b6H
	DB	03aH
	DB	0aeH
	DB	01aH
	DB	0aeH
	DB	01aH
	DB	0aeH
	DB	0faH
	DB	0a5H
	DB	0faH
	DB	0a5H
	DB	0faH
	DB	0a5H
	DB	0daH
	DB	0a5H
	DB	0daH
	DB	0a5H
	DB	0faH
	DB	0a5H
	DB	0daH
	DB	09dH
	DB	0daH
	DB	0a5H
	DB	0faH
	DB	09dH
	DB	0faH
	DB	0a5H
	DB	0faH
	DB	0a5H
	DB	0faH
	DB	0a5H
	DB	0faH
	DB	0a5H
	DB	01aH
	DB	0a6H
	DB	07aH
	DB	06dH
	DB	07aH
	DB	06dH
	DB	079H
	DB	075H
	DB	07aH
	DB	06dH
	DB	07aH
	DB	075H
	DB	07aH
	DB	075H
	DB	07aH
	DB	075H
	DB	07aH
	DB	075H
	DB	09aH
	DB	075H
	DB	09aH
	DB	07dH
	DB	0baH
	DB	07dH
	DB	0baH
	DB	07dH
	DB	0baH
	DB	07dH
	DB	0baH
	DB	07dH
	DB	09aH
	DB	07dH
	DB	0baH
	DB	07dH
	DB	0baH
	DB	07dH
	DB	09aH
	DB	07dH
	DB	07aH
	DB	075H
	DB	09aH
	DB	075H
	DB	079H
	DB	075H
	DB	07aH
	DB	075H
	DB	09aH
	DB	075H
	DB	07aH
	DB	075H
	DB	09aH
	DB	075H
	DB	09aH
	DB	075H
	DB	07aH
	DB	075H
	DB	07aH
	DB	07dH
	DB	07aH
	DB	075H
	DB	07aH
	DB	075H
	DB	09aH
	DB	075H
	DB	099H
	DB	075H
	DB	09aH
	DB	075H
	DB	09aH
	DB	075H
	DB	09aH
	DB	075H
	DB	09aH
	DB	075H
	DB	07aH
	DB	075H
	DB	07aH
	DB	075H
	DB	07aH
	DB	075H
	DB	07aH
	DB	075H
	DB	07aH
	DB	075H
	DB	09aH
	DB	075H
	DB	079H
	DB	075H
	DB	07aH
	DB	075H
	DB	07aH
	DB	075H
	DB	07aH
	DB	075H
	DB	07aH
	DB	075H
	DB	07aH
	DB	075H
	DB	07aH
	DB	075H
	DB	079H
	DB	075H
	DB	07aH
	DB	075H
	DB	07aH
	DB	075H
	DB	07aH
	DB	075H
	DB	09aH
	DB	075H
	DB	07aH
	DB	075H
	DB	07aH
	DB	075H
	DB	09aH
	DB	075H
	DB	09aH
	DB	075H
	DB	09aH
	DB	075H
	DB	079H
	DB	075H
	DB	079H
	DB	075H
	DB	07aH
	DB	075H
	DB	07aH
	DB	075H
	DB	07aH
	DB	075H
	DB	07aH
	DB	075H
	DB	07aH
	DB	07dH
	DB	07aH
	DB	07dH
	DB	079H
	DB	075H
	DB	07aH
	DB	07dH
	DB	07aH
	DB	07dH
	DB	099H
	DB	07dH
	DB	07aH
	DB	07dH
	DB	09aH
	DB	07dH
	DB	0baH
	DB	085H
	DB	0baH
	DB	085H
	DB	0baH
	DB	085H
	DB	0baH
	DB	07dH
	DB	0baH
	DB	085H
	DB	0baH
	DB	07dH
	DB	0baH
	DB	085H
	DB	0baH
	DB	085H
	DB	0baH
	DB	085H
	DB	0baH
	DB	085H
	DB	09aH
	DB	07dH
	DB	0baH
	DB	085H
	DB	0baH
	DB	085H
	DB	0baH
	DB	085H
	DB	0baH
	DB	085H
	DB	0baH
	DB	085H
	DB	0baH
	DB	085H
	DB	09aH
	DB	085H
	DB	0baH
	DB	085H
	DB	09aH
	DB	085H
	DB	0baH
	DB	085H
	DB	0baH
	DB	085H
	DB	0baH
	DB	085H
	DB	07aH
	DB	07dH
	DB	079H
	DB	075H
	DB	07aH
	DB	07dH
	DB	07aH
	DB	07dH
	DB	07aH
	DB	07dH
	DB	079H
	DB	07dH
	DB	07aH
	DB	07dH
	DB	09aH
	DB	07dH
	DB	09aH
	DB	085H
	DB	09aH
	DB	085H
	DB	09aH
	DB	085H
	DB	09aH
	DB	07dH
	DB	09aH
	DB	085H
	DB	0baH
	DB	085H
	DB	0baH
	DB	085H
	DB	0baH
	DB	085H
	DB	0baH
	DB	085H
	DB	0baH
	DB	08dH
	DB	0baH
	DB	08dH
	DB	0daH
	DB	08dH
	DB	0baH
	DB	085H
	DB	0daH
	DB	08dH
	DB	0dbH
	DB	085H
	DB	0baH
	DB	08dH
	DB	0daH
	DB	08dH
	DB	0daH
	DB	08dH
	DB	0bbH
	DB	085H
	DB	0bbH
	DB	08dH
	DB	0baH
	DB	08dH
	DB	0baH
	DB	085H
	DB	0baH
	DB	085H
	DB	0baH
	DB	08dH
	DB	0baH
	DB	085H
	DB	0baH
	DB	08dH
	DB	0baH
	DB	08dH
	DB	0baH
	DB	08dH
	DB	0baH
	DB	08dH
	DB	0baH
	DB	08dH
	DB	0baH
	DB	08dH
	DB	0baH
	DB	08dH
	DB	0daH
	DB	08dH
	DB	0bbH
	DB	08dH
	DB	0baH
	DB	08dH
	DB	0baH
	DB	08dH
	DB	0baH
	DB	08dH
	DB	0baH
	DB	08dH
	DB	0baH
	DB	08dH
	DB	0dbH
	DB	095H
	DB	0fbH
	DB	09dH
	DB	0faH
	DB	09dH
	DB	0daH
	DB	095H
	DB	0daH
	DB	095H
	DB	0daH
	DB	095H
	DB	0daH
	DB	095H
	DB	0daH
	DB	095H
	DB	0faH
	DB	095H
	DB	0fbH
	DB	09dH
	DB	0daH
	DB	09dH
	DB	0faH
	DB	09dH
	DB	0fbH
	DB	09dH
	DB	0faH
	DB	09dH
	DB	0faH
	DB	09dH
	DB	0fbH
	DB	09dH
	DB	0faH
	DB	09dH
	DB	0faH
	DB	09dH
	DB	0faH
	DB	09dH
	DB	0faH
	DB	09dH
	DB	0daH
	DB	09dH
	DB	0daH
	DB	095H
	DB	0daH
	DB	095H
	DB	0faH
	DB	09dH
	DB	0fbH
	DB	09dH
	DB	0daH
	DB	09dH
	DB	0faH
	DB	09dH
	DB	0fbH
	DB	09dH
	DB	01bH
	DB	0a6H
	DB	0faH
	DB	09dH
	DB	0daH
	DB	095H
	DB	09aH
	DB	095H
	DB	0b9H
	DB	095H
	DB	0baH
	DB	095H
	DB	0b9H
	DB	095H
	DB	0baH
	DB	095H
	DB	0baH
	DB	095H
	DB	0baH
	DB	095H
	DB	0baH
	DB	095H
	DB	0baH
	DB	095H
	DB	0baH
	DB	095H
	DB	0baH
	DB	08dH
	DB	0baH
	DB	095H
	DB	0baH
	DB	095H
	DB	0daH
	DB	095H
	DB	0baH
	DB	095H
	DB	0daH
	DB	09dH
	DB	0faH
	DB	09dH
	DB	01bH
	DB	0a6H
	DB	01bH
	DB	0a6H
	DB	01bH
	DB	0a6H
	DB	01bH
	DB	0a6H
	DB	01bH
	DB	0a6H
	DB	0faH
	DB	09dH
	DB	0faH
	DB	09dH
	DB	0fbH
	DB	09dH
	DB	0faH
	DB	09dH
	DB	0daH
	DB	09dH
	DB	0daH
	DB	095H
	DB	0baH
	DB	095H
	DB	0daH
	DB	09dH
	DB	0daH
	DB	09dH
	DB	0baH
	DB	09dH
	DB	0daH
	DB	09dH
	DB	0fbH
	DB	09dH
	DB	0faH
	DB	0a5H
	DB	0fbH
	DB	0a5H
	DB	0fbH
	DB	0adH
	DB	01aH
	DB	0aeH
	DB	03bH
	DB	0b6H
	DB	05bH
	DB	0b6H
	DB	05bH
	DB	0b6H
	DB	05bH
	DB	0beH
	DB	05bH
	DB	0beH
	DB	05bH
	DB	0b6H
	DB	05bH
	DB	0b6H
	DB	03bH
	DB	0b6H
	DB	03bH
	DB	0aeH
	DB	01bH
	DB	0aeH
	DB	01bH
	DB	0aeH
	DB	01aH
	DB	0aeH
	DB	01bH
	DB	0aeH
	DB	0faH
	DB	0a5H
	DB	0daH
	DB	0a5H
	DB	0daH
	DB	0a5H
	DB	0daH
	DB	0a5H
	DB	0daH
	DB	09dH
	DB	0daH
	DB	09dH
	DB	0faH
	DB	09dH
	DB	0daH
	DB	09dH
	DB	0dbH
	DB	0a5H
	DB	0daH
	DB	09dH
	DB	0daH
	DB	09dH
	DB	0dbH
	DB	09dH
	DB	0daH
	DB	09dH
	DB	0daH
	DB	0a5H
	DB	0faH
	DB	0a5H
	DB	09aH
	DB	075H
	DB	09aH
	DB	075H
	DB	09aH
	DB	075H
	DB	079H
	DB	06dH
	DB	09aH
	DB	075H
	DB	09aH
	DB	075H
	DB	07aH
	DB	075H
	DB	079H
	DB	075H
	DB	09aH
	DB	075H
	DB	09aH
	DB	075H
	DB	0baH
	DB	07dH
	DB	0baH
	DB	07dH
	DB	0baH
	DB	07dH
	DB	0baH
	DB	07dH
	DB	0baH
	DB	07dH
	DB	0baH
	DB	07dH
	DB	0baH
	DB	07dH
	DB	09aH
	DB	075H
	DB	09aH
	DB	075H
	DB	09aH
	DB	075H
	DB	09aH
	DB	075H
	DB	07aH
	DB	075H
	DB	09aH
	DB	075H
	DB	09aH
	DB	075H
	DB	09aH
	DB	075H
	DB	099H
	DB	075H
	DB	09aH
	DB	075H
	DB	09aH
	DB	075H
	DB	09aH
	DB	075H
	DB	079H
	DB	075H
	DB	07aH
	DB	075H
	DB	07aH
	DB	075H
	DB	079H
	DB	075H
	DB	07aH
	DB	075H
	DB	079H
	DB	075H
	DB	07aH
	DB	075H
	DB	09aH
	DB	075H
	DB	09aH
	DB	075H
	DB	09aH
	DB	075H
	DB	099H
	DB	075H
	DB	07aH
	DB	075H
	DB	079H
	DB	075H
	DB	079H
	DB	075H
	DB	079H
	DB	075H
	DB	07aH
	DB	075H
	DB	09aH
	DB	075H
	DB	099H
	DB	075H
	DB	09aH
	DB	075H
	DB	079H
	DB	075H
	DB	07aH
	DB	075H
	DB	07aH
	DB	075H
	DB	07aH
	DB	075H
	DB	099H
	DB	075H
	DB	09aH
	DB	075H
	DB	07aH
	DB	075H
	DB	09aH
	DB	075H
	DB	09aH
	DB	075H
	DB	079H
	DB	075H
	DB	07aH
	DB	075H
	DB	079H
	DB	075H
	DB	07aH
	DB	075H
	DB	07aH
	DB	075H
	DB	079H
	DB	075H
	DB	09aH
	DB	075H
	DB	079H
	DB	07dH
	DB	09aH
	DB	075H
	DB	09aH
	DB	07dH
	DB	09aH
	DB	075H
	DB	099H
	DB	075H
	DB	09aH
	DB	075H
	DB	09aH
	DB	07dH
	DB	09aH
	DB	07dH
	DB	09aH
	DB	07dH
	DB	0baH
	DB	085H
	DB	0baH
	DB	085H
	DB	0baH
	DB	07dH
	DB	0baH
	DB	085H
	DB	0baH
	DB	085H
	DB	0baH
	DB	07dH
	DB	09aH
	DB	07dH
	DB	0baH
	DB	07dH
	DB	0baH
	DB	07dH
	DB	0baH
	DB	085H
	DB	0baH
	DB	085H
	DB	0baH
	DB	085H
	DB	0baH
	DB	085H
	DB	0baH
	DB	085H
	DB	0baH
	DB	085H
	DB	0daH
	DB	085H
	DB	0baH
	DB	085H
	DB	0baH
	DB	085H
	DB	0baH
	DB	085H
	DB	0baH
	DB	085H
	DB	09aH
	DB	085H
	DB	0baH
	DB	085H
	DB	0daH
	DB	085H
	DB	0baH
	DB	085H
	DB	09aH
	DB	07dH
	DB	09aH
	DB	07dH
	DB	079H
	DB	07dH
	DB	099H
	DB	075H
	DB	079H
	DB	07dH
	DB	09aH
	DB	07dH
	DB	0baH
	DB	085H
	DB	0baH
	DB	085H
	DB	0baH
	DB	085H
	DB	0baH
	DB	085H
	DB	0baH
	DB	085H
	DB	0baH
	DB	085H
	DB	0baH
	DB	085H
	DB	0baH
	DB	085H
	DB	0baH
	DB	085H
	DB	0daH
	DB	08dH
	DB	0daH
	DB	08dH
	DB	0baH
	DB	085H
	DB	0baH
	DB	085H
	DB	0baH
	DB	08dH
	DB	0bbH
	DB	085H
	DB	0baH
	DB	08dH
	DB	0baH
	DB	085H
	DB	0baH
	DB	08dH
	DB	0baH
	DB	085H
	DB	0daH
	DB	085H
	DB	0baH
	DB	08dH
	DB	0bbH
	DB	085H
	DB	0baH
	DB	085H
	DB	0baH
	DB	08dH
	DB	0bbH
	DB	085H
	DB	0bbH
	DB	085H
	DB	0baH
	DB	08dH
	DB	0baH
	DB	08dH
	DB	0baH
	DB	085H
	DB	0baH
	DB	085H
	DB	0baH
	DB	08dH
	DB	0baH
	DB	08dH
	DB	0baH
	DB	08dH
	DB	0daH
	DB	08dH
	DB	0baH
	DB	08dH
	DB	0daH
	DB	08dH
	DB	0baH
	DB	08dH
	DB	0baH
	DB	08dH
	DB	0fbH
	DB	095H
	DB	0fbH
	DB	095H
	DB	0fbH
	DB	095H
	DB	0daH
	DB	095H
	DB	0daH
	DB	08dH
	DB	0daH
	DB	08dH
	DB	0daH
	DB	095H
	DB	0daH
	DB	095H
	DB	0dbH
	DB	095H
	DB	0fbH
	DB	095H
	DB	0faH
	DB	09dH
	DB	0daH
	DB	09dH
	DB	0faH
	DB	09dH
	DB	0fbH
	DB	09dH
	DB	0faH
	DB	09dH
	DB	0fbH
	DB	09dH
	DB	0faH
	DB	09dH
	DB	0daH
	DB	095H
	DB	0daH
	DB	095H
	DB	0daH
	DB	095H
	DB	0daH
	DB	095H
	DB	0daH
	DB	095H
	DB	0daH
	DB	095H
	DB	0faH
	DB	09dH
	DB	0fbH
	DB	09dH
	DB	0faH
	DB	09dH
	DB	0baH
	DB	095H
	DB	0faH
	DB	09dH
	DB	0faH
	DB	0a5H
	DB	0fbH
	DB	0a5H
	DB	0faH
	DB	09dH
	DB	01aH
	DB	09eH
	DB	01bH
	DB	0a6H
	DB	0daH
	DB	09dH
	DB	0baH
	DB	08dH
	DB	0b9H
	DB	08dH
	DB	09aH
	DB	08dH
	DB	0baH
	DB	08dH
	DB	0b9H
	DB	08dH
	DB	0baH
	DB	08dH
	DB	0baH
	DB	08dH
	DB	0baH
	DB	095H
	DB	0baH
	DB	08dH
	DB	0baH
	DB	095H
	DB	0daH
	DB	095H
	DB	0daH
	DB	095H
	DB	0daH
	DB	095H
	DB	0faH
	DB	09dH
	DB	0fbH
	DB	09dH
	DB	01bH
	DB	0a6H
	DB	01bH
	DB	09eH
	DB	01aH
	DB	0a6H
	DB	01bH
	DB	0a6H
	DB	01aH
	DB	0a6H
	DB	0faH
	DB	09dH
	DB	0fbH
	DB	09dH
	DB	0faH
	DB	09dH
	DB	0daH
	DB	09dH
	DB	0daH
	DB	09dH
	DB	0daH
	DB	095H
	DB	0daH
	DB	09dH
	DB	0daH
	DB	095H
	DB	0daH
	DB	095H
	DB	0daH
	DB	095H
	DB	0daH
	DB	095H
	DB	0daH
	DB	09dH
	DB	0daH
	DB	09dH
	DB	0fbH
	DB	0a5H
	DB	0fbH
	DB	0a5H
	DB	01aH
	DB	0a6H
	DB	03bH
	DB	0aeH
	DB	03bH
	DB	0b6H
	DB	05bH
	DB	0b6H
	DB	07bH
	DB	0b6H
	DB	05cH
	DB	0b6H
	DB	05cH
	DB	0beH
	DB	05bH
	DB	0b6H
	DB	03bH
	DB	0b6H
	DB	03bH
	DB	0b6H
	DB	03bH
	DB	0aeH
	DB	01bH
	DB	0aeH
	DB	0faH
	DB	0adH
	DB	0faH
	DB	0a5H
	DB	0fbH
	DB	0a5H
	DB	0faH
	DB	0a5H
	DB	0faH
	DB	09dH
	DB	0daH
	DB	09dH
	DB	0daH
	DB	09dH
	DB	0daH
	DB	09dH
	DB	0daH
	DB	09dH
	DB	0daH
	DB	09dH
	DB	0daH
	DB	09dH
	DB	0daH
	DB	09dH
	DB	0daH
	DB	09dH
	DB	0daH
	DB	09dH
	DB	0daH
	DB	09dH
	DB	0daH
	DB	09dH
	DB	0fbH
	DB	09dH
	DB	0faH
	DB	0a5H
	DB	09aH
	DB	075H
	DB	09aH
	DB	075H
	DB	07aH
	DB	075H
	DB	09aH
	DB	075H
	DB	07aH
	DB	075H
	DB	09aH
	DB	075H
	DB	09aH
	DB	075H
	DB	09aH
	DB	075H
	DB	09aH
	DB	075H
	DB	09aH
	DB	075H
	DB	09aH
	DB	075H
	DB	09aH
	DB	075H
	DB	09aH
	DB	07dH
	DB	0bbH
	DB	07dH
	DB	09aH
	DB	07dH
	DB	09aH
	DB	075H
	DB	09aH
	DB	075H
	DB	09aH
	DB	075H
	DB	09aH
	DB	075H
	DB	09aH
	DB	075H
	DB	09aH
	DB	075H
	DB	09aH
	DB	07dH
	DB	09aH
	DB	075H
	DB	09aH
	DB	075H
	DB	09aH
	DB	075H
	DB	09aH
	DB	07dH
	DB	09aH
	DB	075H
	DB	09aH
	DB	075H
	DB	099H
	DB	075H
	DB	07aH
	DB	075H
	DB	09aH
	DB	075H
	DB	09aH
	DB	07dH
	DB	07aH
	DB	075H
	DB	09aH
	DB	07dH
	DB	09aH
	DB	075H
	DB	09aH
	DB	07dH
	DB	09aH
	DB	075H
	DB	09aH
	DB	075H
	DB	09aH
	DB	075H
	DB	07aH
	DB	075H
	DB	09aH
	DB	075H
	DB	07aH
	DB	075H
	DB	09aH
	DB	075H
	DB	09aH
	DB	075H
	DB	09aH
	DB	075H
	DB	09aH
	DB	075H
	DB	09aH
	DB	07dH
	DB	09aH
	DB	075H
	DB	09aH
	DB	075H
	DB	09aH
	DB	075H
	DB	079H
	DB	075H
	DB	07aH
	DB	075H
	DB	07aH
	DB	075H
	DB	09aH
	DB	075H
	DB	099H
	DB	07dH
	DB	09aH
	DB	075H
	DB	09aH
	DB	07dH
	DB	09aH
	DB	07dH
	DB	07aH
	DB	075H
	DB	07aH
	DB	075H
	DB	09aH
	DB	075H
	DB	09aH
	DB	075H
	DB	07aH
	DB	07dH
	DB	099H
	DB	07dH
	DB	09aH
	DB	07dH
	DB	09aH
	DB	07dH
	DB	09aH
	DB	07dH
	DB	09aH
	DB	07dH
	DB	09aH
	DB	07dH
	DB	09aH
	DB	07dH
	DB	09aH
	DB	07dH
	DB	09aH
	DB	07dH
	DB	09aH
	DB	07dH
	DB	0baH
	DB	07dH
	DB	0baH
	DB	07dH
	DB	0baH
	DB	07dH
	DB	0daH
	DB	085H
	DB	0baH
	DB	085H
	DB	0baH
	DB	085H
	DB	0baH
	DB	085H
	DB	0baH
	DB	085H
	DB	0daH
	DB	085H
	DB	0dbH
	DB	085H
	DB	0baH
	DB	085H
	DB	0daH
	DB	085H
	DB	0dbH
	DB	085H
	DB	0daH
	DB	085H
	DB	0baH
	DB	085H
	DB	0baH
	DB	085H
	DB	0baH
	DB	085H
	DB	0baH
	DB	085H
	DB	09aH
	DB	085H
	DB	0baH
	DB	085H
	DB	0baH
	DB	085H
	DB	09aH
	DB	085H
	DB	0baH
	DB	085H
	DB	0daH
	DB	08dH
	DB	0baH
	DB	085H
	DB	0baH
	DB	085H
	DB	09aH
	DB	07dH
	DB	09aH
	DB	07dH
	DB	09aH
	DB	085H
	DB	09aH
	DB	085H
	DB	09aH
	DB	085H
	DB	09aH
	DB	085H
	DB	0baH
	DB	085H
	DB	0baH
	DB	085H
	DB	0baH
	DB	085H
	DB	0baH
	DB	085H
	DB	0baH
	DB	085H
	DB	0baH
	DB	085H
	DB	0daH
	DB	085H
	DB	0baH
	DB	085H
	DB	0baH
	DB	085H
	DB	0baH
	DB	085H
	DB	0baH
	DB	085H
	DB	0daH
	DB	08dH
	DB	0daH
	DB	08dH
	DB	0baH
	DB	085H
	DB	0dbH
	DB	08dH
	DB	0bbH
	DB	085H
	DB	0bbH
	DB	08dH
	DB	0baH
	DB	085H
	DB	0baH
	DB	085H
	DB	0baH
	DB	085H
	DB	09aH
	DB	085H
	DB	09aH
	DB	085H
	DB	0baH
	DB	08dH
	DB	09aH
	DB	085H
	DB	0baH
	DB	085H
	DB	0baH
	DB	085H
	DB	0bbH
	DB	085H
	DB	0bbH
	DB	08dH
	DB	0baH
	DB	085H
	DB	0bbH
	DB	08dH
	DB	0baH
	DB	085H
	DB	0baH
	DB	08dH
	DB	0baH
	DB	08dH
	DB	0daH
	DB	08dH
	DB	0dbH
	DB	095H
	DB	0fbH
	DB	095H
	DB	0fbH
	DB	095H
	DB	0daH
	DB	095H
	DB	0baH
	DB	08dH
	DB	0daH
	DB	08dH
	DB	0daH
	DB	095H
	DB	0dbH
	DB	095H
	DB	0daH
	DB	095H
	DB	0dbH
	DB	095H
	DB	0daH
	DB	095H
	DB	0faH
	DB	09dH
	DB	0fbH
	DB	09dH
	DB	0fbH
	DB	09dH
	DB	0fbH
	DB	095H
	DB	0faH
	DB	09dH
	DB	0faH
	DB	09dH
	DB	0dbH
	DB	09dH
	DB	0daH
	DB	09dH
	DB	0daH
	DB	095H
	DB	0fbH
	DB	09dH
	DB	0daH
	DB	095H
	DB	0dbH
	DB	095H
	DB	01bH
	DB	0a6H
	DB	03bH
	DB	0a6H
	DB	05bH
	DB	0aeH
	DB	01bH
	DB	0a6H
	DB	0fbH
	DB	09dH
	DB	0faH
	DB	09dH
	DB	01bH
	DB	09eH
	DB	01bH
	DB	09eH
	DB	0faH
	DB	09dH
	DB	0fbH
	DB	09dH
	DB	0fbH
	DB	09dH
	DB	0faH
	DB	09dH
	DB	0fbH
	DB	09dH
	DB	0faH
	DB	09dH
	DB	0baH
	DB	095H
	DB	09aH
	DB	08dH
	DB	0baH
	DB	08dH
	DB	0baH
	DB	08dH
	DB	0baH
	DB	08dH
	DB	0b9H
	DB	08dH
	DB	0baH
	DB	08dH
	DB	0baH
	DB	095H
	DB	0baH
	DB	08dH
	DB	0baH
	DB	095H
	DB	0daH
	DB	095H
	DB	0daH
	DB	095H
	DB	0faH
	DB	09dH
	DB	01bH
	DB	0a6H
	DB	0fbH
	DB	09dH
	DB	01bH
	DB	0a6H
	DB	01bH
	DB	09eH
	DB	0faH
	DB	09dH
	DB	0fbH
	DB	09dH
	DB	0faH
	DB	09dH
	DB	0daH
	DB	09dH
	DB	0daH
	DB	095H
	DB	0baH
	DB	095H
	DB	0daH
	DB	095H
	DB	0baH
	DB	095H
	DB	0baH
	DB	095H
	DB	0baH
	DB	095H
	DB	0daH
	DB	095H
	DB	0baH
	DB	095H
	DB	0daH
	DB	09dH
	DB	0daH
	DB	09dH
	DB	0daH
	DB	09dH
	DB	0dbH
	DB	0a5H
	DB	01bH
	DB	0a6H
	DB	03bH
	DB	0aeH
	DB	03bH
	DB	0b6H
	DB	05bH
	DB	0b6H
	DB	05bH
	DB	0b6H
	DB	05bH
	DB	0beH
	DB	07bH
	DB	0b6H
	DB	05bH
	DB	0b6H
	DB	03bH
	DB	0aeH
	DB	01bH
	DB	0aeH
	DB	01bH
	DB	0aeH
	DB	01aH
	DB	0aeH
	DB	01aH
	DB	0a6H
	DB	0faH
	DB	0a5H
	DB	0daH
	DB	0a5H
	DB	0faH
	DB	0a5H
	DB	0daH
	DB	0a5H
	DB	0daH
	DB	09dH
	DB	0baH
	DB	09dH
	DB	0daH
	DB	09dH
	DB	0baH
	DB	09dH
	DB	0baH
	DB	09dH
	DB	0baH
	DB	095H
	DB	0baH
	DB	095H
	DB	0baH
	DB	095H
	DB	0daH
	DB	09dH
	DB	0baH
	DB	095H
	DB	0baH
	DB	095H
	DB	0daH
	DB	09dH
	DB	0baH
	DB	09dH
	DB	0daH
	DB	09dH
	DB	09aH
	DB	075H
	DB	09aH
	DB	07dH
	DB	0baH
	DB	075H
	DB	09aH
	DB	075H
	DB	09aH
	DB	07dH
	DB	09aH
	DB	075H
	DB	09aH
	DB	075H
	DB	0baH
	DB	07dH
	DB	09aH
	DB	07dH
	DB	0baH
	DB	07dH
	DB	0baH
	DB	07dH
	DB	0baH
	DB	07dH
	DB	0baH
	DB	07dH
	DB	0baH
	DB	07dH
	DB	09aH
	DB	07dH
	DB	0baH
	DB	075H
	DB	0baH
	DB	07dH
	DB	0baH
	DB	07dH
	DB	09aH
	DB	075H
	DB	09aH
	DB	07dH
	DB	0baH
	DB	07dH
	DB	0baH
	DB	07dH
	DB	09aH
	DB	07dH
	DB	099H
	DB	07dH
	DB	09aH
	DB	07dH
	DB	09aH
	DB	07dH
	DB	09aH
	DB	075H
	DB	09aH
	DB	07dH
	DB	09aH
	DB	07dH
	DB	09aH
	DB	07dH
	DB	09aH
	DB	075H
	DB	099H
	DB	075H
	DB	09aH
	DB	07dH
	DB	09aH
	DB	07dH
	DB	0baH
	DB	07dH
	DB	09aH
	DB	075H
	DB	09aH
	DB	07dH
	DB	09aH
	DB	07dH
	DB	09aH
	DB	07dH
	DB	09aH
	DB	07dH
	DB	09aH
	DB	075H
	DB	09aH
	DB	075H
	DB	09aH
	DB	075H
	DB	09aH
	DB	075H
	DB	09aH
	DB	07dH
	DB	09aH
	DB	07dH
	DB	09aH
	DB	075H
	DB	09aH
	DB	07dH
	DB	09aH
	DB	07dH
	DB	09aH
	DB	075H
	DB	09aH
	DB	075H
	DB	099H
	DB	07dH
	DB	09aH
	DB	075H
	DB	07aH
	DB	075H
	DB	09aH
	DB	075H
	DB	09aH
	DB	07dH
	DB	09aH
	DB	07dH
	DB	09aH
	DB	07dH
	DB	09aH
	DB	07dH
	DB	09aH
	DB	07dH
	DB	09aH
	DB	075H
	DB	09aH
	DB	07dH
	DB	09aH
	DB	07dH
	DB	09aH
	DB	075H
	DB	09aH
	DB	075H
	DB	0baH
	DB	07dH
	DB	0baH
	DB	07dH
	DB	0baH
	DB	085H
	DB	0baH
	DB	07dH
	DB	0baH
	DB	07dH
	DB	0baH
	DB	085H
	DB	0baH
	DB	07dH
	DB	0baH
	DB	07dH
	DB	0baH
	DB	07dH
	DB	0baH
	DB	07dH
	DB	0baH
	DB	085H
	DB	0baH
	DB	085H
	DB	0daH
	DB	085H
	DB	0baH
	DB	085H
	DB	0dbH
	DB	085H
	DB	0dbH
	DB	085H
	DB	0daH
	DB	085H
	DB	0dbH
	DB	08dH
	DB	0daH
	DB	085H
	DB	0daH
	DB	085H
	DB	0daH
	DB	085H
	DB	0daH
	DB	085H
	DB	0baH
	DB	085H
	DB	0baH
	DB	085H
	DB	0baH
	DB	085H
	DB	0baH
	DB	085H
	DB	0baH
	DB	085H
	DB	0baH
	DB	085H
	DB	0baH
	DB	085H
	DB	0baH
	DB	085H
	DB	0baH
	DB	08dH
	DB	0baH
	DB	085H
	DB	0baH
	DB	085H
	DB	0baH
	DB	085H
	DB	0baH
	DB	085H
	DB	09aH
	DB	085H
	DB	0baH
	DB	085H
	DB	0baH
	DB	085H
	DB	0baH
	DB	085H
	DB	0baH
	DB	085H
	DB	0baH
	DB	085H
	DB	0daH
	DB	085H
	DB	0baH
	DB	085H
	DB	0baH
	DB	085H
	DB	0baH
	DB	085H
	DB	0baH
	DB	085H
	DB	0daH
	DB	08dH
	DB	0baH
	DB	085H
	DB	0baH
	DB	085H
	DB	0baH
	DB	08dH
	DB	0daH
	DB	08dH
	DB	0daH
	DB	085H
	DB	0daH
	DB	085H
	DB	0baH
	DB	085H
	DB	0baH
	DB	085H
	DB	0baH
	DB	08dH
	DB	0baH
	DB	085H
	DB	0bbH
	DB	08dH
	DB	0baH
	DB	08dH
	DB	0baH
	DB	085H
	DB	0baH
	DB	085H
	DB	0baH
	DB	085H
	DB	0baH
	DB	085H
	DB	0baH
	DB	08dH
	DB	0bbH
	DB	08dH
	DB	0baH
	DB	085H
	DB	0baH
	DB	08dH
	DB	0baH
	DB	085H
	DB	0baH
	DB	08dH
	DB	0daH
	DB	08dH
	DB	0baH
	DB	08dH
	DB	0dbH
	DB	08dH
	DB	0dbH
	DB	08dH
	DB	0dbH
	DB	095H
	DB	0daH
	DB	095H
	DB	0daH
	DB	08dH
	DB	0baH
	DB	08dH
	DB	0baH
	DB	08dH
	DB	0daH
	DB	095H
	DB	0daH
	DB	095H
	DB	0dbH
	DB	095H
	DB	0faH
	DB	095H
	DB	0faH
	DB	095H
	DB	0daH
	DB	095H
	DB	0faH
	DB	09dH
	DB	0fbH
	DB	09dH
	DB	0faH
	DB	095H
	DB	0faH
	DB	095H
	DB	0daH
	DB	095H
	DB	0daH
	DB	095H
	DB	0daH
	DB	095H
	DB	0fbH
	DB	09dH
	DB	01bH
	DB	09eH
	DB	01bH
	DB	09eH
	DB	01bH
	DB	0a6H
	DB	01bH
	DB	0a6H
	DB	03bH
	DB	0a6H
	DB	03bH
	DB	0a6H
	DB	01bH
	DB	0a6H
	DB	0fbH
	DB	09dH
	DB	0faH
	DB	09dH
	DB	01bH
	DB	09eH
	DB	01bH
	DB	09eH
	DB	0faH
	DB	09dH
	DB	0faH
	DB	09dH
	DB	0faH
	DB	09dH
	DB	0daH
	DB	095H
	DB	0daH
	DB	095H
	DB	0daH
	DB	095H
	DB	0faH
	DB	09dH
	DB	0faH
	DB	09dH
	DB	0daH
	DB	095H
	DB	0baH
	DB	08dH
	DB	0b9H
	DB	08dH
	DB	099H
	DB	08dH
	DB	0baH
	DB	095H
	DB	0baH
	DB	08dH
	DB	0b9H
	DB	095H
	DB	0baH
	DB	095H
	DB	0baH
	DB	095H
	DB	0daH
	DB	095H
	DB	0daH
	DB	095H
	DB	0fbH
	DB	09dH
	DB	0fbH
	DB	09dH
	DB	0faH
	DB	09dH
	DB	01bH
	DB	0a6H
	DB	0faH
	DB	0a5H
	DB	0fbH
	DB	09dH
	DB	0faH
	DB	09dH
	DB	0faH
	DB	09dH
	DB	0dbH
	DB	09dH
	DB	0daH
	DB	095H
	DB	0baH
	DB	095H
	DB	0baH
	DB	095H
	DB	0daH
	DB	095H
	DB	0baH
	DB	095H
	DB	0baH
	DB	095H
	DB	0daH
	DB	09dH
	DB	0baH
	DB	095H
	DB	0daH
	DB	09dH
	DB	0daH
	DB	09dH
	DB	0daH
	DB	09dH
	DB	0faH
	DB	09dH
	DB	0faH
	DB	0a5H
	DB	0faH
	DB	0a5H
	DB	03bH
	DB	0aeH
	DB	03bH
	DB	0b6H
	DB	05bH
	DB	0b6H
	DB	05bH
	DB	0b6H
	DB	05bH
	DB	0b6H
	DB	05bH
	DB	0b6H
	DB	03bH
	DB	0b6H
	DB	03bH
	DB	0aeH
	DB	01bH
	DB	0aeH
	DB	01aH
	DB	0a6H
	DB	0faH
	DB	0a5H
	DB	0fbH
	DB	0a5H
	DB	0faH
	DB	0a5H
	DB	0faH
	DB	0a5H
	DB	0daH
	DB	0a5H
	DB	0daH
	DB	09dH
	DB	0daH
	DB	09dH
	DB	0baH
	DB	09dH
	DB	0baH
	DB	09dH
	DB	0daH
	DB	095H
	DB	0baH
	DB	095H
	DB	0baH
	DB	09dH
	DB	0baH
	DB	09dH
	DB	0baH
	DB	095H
	DB	0baH
	DB	095H
	DB	0baH
	DB	095H
	DB	0daH
	DB	09dH
	DB	0baH
	DB	09dH
	DB	0daH
	DB	09dH
	DB	0daH
	DB	09dH
	DB	09aH
	DB	07dH
	DB	0baH
	DB	07dH
	DB	0baH
	DB	07dH
	DB	0bbH
	DB	07dH
	DB	0baH
	DB	07dH
	DB	0baH
	DB	07dH
	DB	09aH
	DB	07dH
	DB	09aH
	DB	075H
	DB	09aH
	DB	07dH
	DB	09aH
	DB	075H
	DB	09aH
	DB	07dH
	DB	09aH
	DB	07dH
	DB	09aH
	DB	07dH
	DB	09bH
	DB	07dH
	DB	09aH
	DB	075H
	DB	09aH
	DB	07dH
	DB	09aH
	DB	07dH
	DB	09aH
	DB	075H
	DB	09aH
	DB	07dH
	DB	09aH
	DB	07dH
	DB	09aH
	DB	075H
	DB	09aH
	DB	07dH
	DB	09aH
	DB	07dH
	DB	09aH
	DB	07dH
	DB	09aH
	DB	075H
	DB	09aH
	DB	07dH
	DB	09aH
	DB	07dH
	DB	09aH
	DB	075H
	DB	09aH
	DB	07dH
	DB	09aH
	DB	07dH
	DB	09aH
	DB	075H
	DB	09aH
	DB	07dH
	DB	09aH
	DB	07dH
	DB	09aH
	DB	075H
	DB	09aH
	DB	07dH
	DB	09aH
	DB	07dH
	DB	09aH
	DB	07dH
	DB	09aH
	DB	075H
	DB	09aH
	DB	075H
	DB	09aH
	DB	07dH
	DB	09aH
	DB	075H
	DB	09aH
	DB	075H
	DB	09aH
	DB	07dH
	DB	09aH
	DB	07dH
	DB	09aH
	DB	075H
	DB	09aH
	DB	075H
	DB	09aH
	DB	07dH
	DB	09aH
	DB	075H
	DB	09aH
	DB	075H
	DB	09aH
	DB	07dH
	DB	09aH
	DB	07dH
	DB	09aH
	DB	075H
	DB	09aH
	DB	07dH
	DB	099H
	DB	07dH
	DB	09aH
	DB	07dH
	DB	09aH
	DB	075H
	DB	09aH
	DB	075H
	DB	099H
	DB	07dH
	DB	09aH
	DB	07dH
	DB	09aH
	DB	075H
	DB	09aH
	DB	07dH
	DB	09aH
	DB	07dH
	DB	09aH
	DB	07dH
	DB	0baH
	DB	07dH
	DB	0baH
	DB	07dH
	DB	09aH
	DB	07dH
	DB	0baH
	DB	07dH
	DB	0baH
	DB	07dH
	DB	0baH
	DB	07dH
	DB	0baH
	DB	07dH
	DB	0daH
	DB	085H
	DB	0baH
	DB	085H
	DB	0baH
	DB	085H
	DB	0baH
	DB	085H
	DB	09aH
	DB	07dH
	DB	0baH
	DB	085H
	DB	0bbH
	DB	085H
	DB	0baH
	DB	085H
	DB	0daH
	DB	085H
	DB	0baH
	DB	085H
	DB	0daH
	DB	085H
	DB	0daH
	DB	08dH
	DB	0bbH
	DB	085H
	DB	0daH
	DB	085H
	DB	0bbH
	DB	085H
	DB	0dbH
	DB	085H
	DB	0baH
	DB	085H
	DB	0baH
	DB	085H
	DB	0baH
	DB	085H
	DB	0baH
	DB	085H
	DB	0baH
	DB	085H
	DB	0baH
	DB	085H
	DB	0bbH
	DB	085H
	DB	0baH
	DB	085H
	DB	0baH
	DB	085H
	DB	0bbH
	DB	085H
	DB	0daH
	DB	08dH
	DB	0baH
	DB	08dH
	DB	0daH
	DB	085H
	DB	0baH
	DB	085H
	DB	0baH
	DB	085H
	DB	09aH
	DB	07dH
	DB	0baH
	DB	085H
	DB	0baH
	DB	085H
	DB	0daH
	DB	085H
	DB	0baH
	DB	085H
	DB	0baH
	DB	085H
	DB	0baH
	DB	085H
	DB	0baH
	DB	08dH
	DB	0baH
	DB	085H
	DB	0baH
	DB	085H
	DB	0baH
	DB	085H
	DB	0baH
	DB	08dH
	DB	0dbH
	DB	08dH
	DB	0baH
	DB	085H
	DB	0baH
	DB	08dH
	DB	0bbH
	DB	08dH
	DB	0baH
	DB	08dH
	DB	0baH
	DB	085H
	DB	0baH
	DB	08dH
	DB	0daH
	DB	08dH
	DB	0bbH
	DB	085H
	DB	0baH
	DB	08dH
	DB	0bbH
	DB	08dH
	DB	0baH
	DB	085H
	DB	0bbH
	DB	08dH
	DB	0baH
	DB	08dH
	DB	0baH
	DB	085H
	DB	0baH
	DB	08dH
	DB	0baH
	DB	08dH
	DB	0bbH
	DB	08dH
	DB	0baH
	DB	08dH
	DB	0baH
	DB	08dH
	DB	0baH
	DB	085H
	DB	0daH
	DB	08dH
	DB	0fbH
	DB	095H
	DB	0dbH
	DB	095H
	DB	0daH
	DB	08dH
	DB	0daH
	DB	08dH
	DB	0baH
	DB	08dH
	DB	0daH
	DB	08dH
	DB	0daH
	DB	08dH
	DB	0daH
	DB	095H
	DB	0daH
	DB	08dH
	DB	0daH
	DB	095H
	DB	0daH
	DB	095H
	DB	0daH
	DB	095H
	DB	0fbH
	DB	095H
	DB	0daH
	DB	095H
	DB	0faH
	DB	095H
	DB	0dbH
	DB	095H
	DB	0daH
	DB	095H
	DB	0daH
	DB	095H
	DB	0daH
	DB	095H
	DB	0baH
	DB	08dH
	DB	0faH
	DB	09dH
	DB	01bH
	DB	09eH
	DB	01bH
	DB	09eH
	DB	0faH
	DB	09dH
	DB	01aH
	DB	09eH
	DB	01bH
	DB	0a6H
	DB	01bH
	DB	0a6H
	DB	0fbH
	DB	09dH
	DB	0faH
	DB	09dH
	DB	0fbH
	DB	09dH
	DB	0fbH
	DB	09dH
	DB	0faH
	DB	09dH
	DB	0faH
	DB	09dH
	DB	0daH
	DB	09dH
	DB	0daH
	DB	095H
	DB	0baH
	DB	095H
	DB	0baH
	DB	095H
	DB	0baH
	DB	095H
	DB	0daH
	DB	095H
	DB	0daH
	DB	095H
	DB	0faH
	DB	095H
	DB	0fbH
	DB	09dH
	DB	0faH
	DB	09dH
	DB	0daH
	DB	09dH
	DB	0baH
	DB	095H
	DB	09aH
	DB	08dH
	DB	0baH
	DB	08dH
	DB	0daH
	DB	09dH
	DB	0faH
	DB	09dH
	DB	0daH
	DB	095H
	DB	0daH
	DB	095H
	DB	0faH
	DB	09dH
	DB	0fbH
	DB	09dH
	DB	0faH
	DB	09dH
	DB	0fbH
	DB	0a5H
	DB	0fbH
	DB	09dH
	DB	0faH
	DB	09dH
	DB	0faH
	DB	09dH
	DB	0dbH
	DB	09dH
	DB	0dbH
	DB	09dH
	DB	0daH
	DB	095H
	DB	0daH
	DB	095H
	DB	0daH
	DB	095H
	DB	0baH
	DB	095H
	DB	0baH
	DB	095H
	DB	0daH
	DB	095H
	DB	0baH
	DB	095H
	DB	0baH
	DB	095H
	DB	0baH
	DB	095H
	DB	0daH
	DB	095H
	DB	0daH
	DB	095H
	DB	0daH
	DB	09dH
	DB	0daH
	DB	09dH
	DB	0fbH
	DB	0a5H
	DB	01bH
	DB	0a6H
	DB	01bH
	DB	0aeH
	DB	03bH
	DB	0b6H
	DB	03bH
	DB	0b6H
	DB	03bH
	DB	0b6H
	DB	05bH
	DB	0b6H
	DB	03bH
	DB	0b6H
	DB	03bH
	DB	0aeH
	DB	01bH
	DB	0aeH
	DB	01bH
	DB	0aeH
	DB	01bH
	DB	0a6H
	DB	0faH
	DB	0a5H
	DB	0faH
	DB	0a5H
	DB	0daH
	DB	09dH
	DB	0daH
	DB	09dH
	DB	0daH
	DB	09dH
	DB	0daH
	DB	09dH
	DB	0baH
	DB	09dH
	DB	0baH
	DB	095H
	DB	0baH
	DB	095H
	DB	0baH
	DB	09dH
	DB	0baH
	DB	095H
	DB	0baH
	DB	095H
	DB	0baH
	DB	095H
	DB	0baH
	DB	095H
	DB	0baH
	DB	095H
	DB	0baH
	DB	095H
	DB	0baH
	DB	09dH
	DB	0daH
	DB	095H
	DB	0baH
	DB	095H
	DB	0baH
	DB	09dH
	DB	0baH
	DB	07dH
	DB	0baH
	DB	07dH
	DB	0baH
	DB	07dH
	DB	0daH
	DB	07dH
	DB	0bbH
	DB	07dH
	DB	0baH
	DB	07dH
	DB	0baH
	DB	07dH
	DB	0baH
	DB	075H
	DB	0bbH
	DB	07dH
	DB	0baH
	DB	07dH
	DB	0baH
	DB	07dH
	DB	0baH
	DB	075H
	DB	0bbH
	DB	07dH
	DB	0baH
	DB	075H
	DB	09aH
	DB	075H
	DB	09aH
	DB	075H
	DB	09aH
	DB	075H
	DB	0baH
	DB	075H
	DB	0baH
	DB	07dH
	DB	0baH
	DB	075H
	DB	0baH
	DB	075H
	DB	09aH
	DB	075H
	DB	0baH
	DB	075H
	DB	0baH
	DB	07dH
	DB	0baH
	DB	07dH
	DB	0baH
	DB	07dH
	DB	0baH
	DB	07dH
	DB	0baH
	DB	07dH
	DB	0baH
	DB	07dH
	DB	0baH
	DB	07dH
	DB	09aH
	DB	07dH
	DB	0baH
	DB	07dH
	DB	09aH
	DB	075H
	DB	0baH
	DB	07dH
	DB	09aH
	DB	075H
	DB	09aH
	DB	07dH
	DB	0baH
	DB	07dH
	DB	0baH
	DB	07dH
	DB	09aH
	DB	07dH
	DB	0baH
	DB	07dH
	DB	09aH
	DB	07dH
	DB	09aH
	DB	07dH
	DB	0baH
	DB	07dH
	DB	09aH
	DB	075H
	DB	09aH
	DB	07dH
	DB	09aH
	DB	07dH
	DB	09aH
	DB	07dH
	DB	09aH
	DB	07dH
	DB	09aH
	DB	07dH
	DB	09aH
	DB	07dH
	DB	09aH
	DB	07dH
	DB	09aH
	DB	07dH
	DB	09aH
	DB	075H
	DB	09aH
	DB	07dH
	DB	09aH
	DB	075H
	DB	0b9H
	DB	07dH
	DB	09aH
	DB	07dH
	DB	0baH
	DB	07dH
	DB	09aH
	DB	07dH
	DB	0baH
	DB	07dH
	DB	0baH
	DB	07dH
	DB	0baH
	DB	07dH
	DB	0baH
	DB	07dH
	DB	0daH
	DB	085H
	DB	0baH
	DB	085H
	DB	0baH
	DB	07dH
	DB	0daH
	DB	085H
	DB	0daH
	DB	085H
	DB	0daH
	DB	085H
	DB	0daH
	DB	085H
	DB	0dbH
	DB	085H
	DB	0daH
	DB	085H
	DB	0daH
	DB	085H
	DB	0daH
	DB	085H
	DB	0baH
	DB	085H
	DB	0baH
	DB	085H
	DB	0dbH
	DB	085H
	DB	0dbH
	DB	085H
	DB	0dbH
	DB	085H
	DB	0dbH
	DB	085H
	DB	0daH
	DB	085H
	DB	0daH
	DB	085H
	DB	0daH
	DB	085H
	DB	0daH
	DB	08dH
	DB	0baH
	DB	08dH
	DB	0baH
	DB	085H
	DB	0bbH
	DB	085H
	DB	0dbH
	DB	085H
	DB	0baH
	DB	085H
	DB	0baH
	DB	085H
	DB	0baH
	DB	085H
	DB	0bbH
	DB	085H
	DB	0dbH
	DB	085H
	DB	0daH
	DB	08dH
	DB	0fbH
	DB	08dH
	DB	0fbH
	DB	08dH
	DB	0dbH
	DB	08dH
	DB	0fbH
	DB	08dH
	DB	0faH
	DB	08dH
	DB	0dbH
	DB	08dH
	DB	0baH
	DB	085H
	DB	0baH
	DB	085H
	DB	0baH
	DB	085H
	DB	0baH
	DB	085H
	DB	0baH
	DB	085H
	DB	0baH
	DB	085H
	DB	0baH
	DB	085H
	DB	0baH
	DB	085H
	DB	0daH
	DB	085H
	DB	0daH
	DB	085H
	DB	0baH
	DB	085H
	DB	0baH
	DB	085H
	DB	0baH
	DB	085H
	DB	0baH
	DB	085H
	DB	0baH
	DB	085H
	DB	0baH
	DB	085H
	DB	0baH
	DB	085H
	DB	0dbH
	DB	085H
	DB	0daH
	DB	08dH
	DB	0bbH
	DB	085H
	DB	0baH
	DB	085H
	DB	0baH
	DB	085H
	DB	0baH
	DB	085H
	DB	0daH
	DB	085H
	DB	0bbH
	DB	08dH
	DB	0baH
	DB	085H
	DB	0bbH
	DB	08dH
	DB	0bbH
	DB	085H
	DB	0baH
	DB	085H
	DB	0baH
	DB	085H
	DB	0baH
	DB	085H
	DB	0dbH
	DB	08dH
	DB	0daH
	DB	08dH
	DB	0dbH
	DB	095H
	DB	0dbH
	DB	095H
	DB	0daH
	DB	08dH
	DB	0baH
	DB	08dH
	DB	0baH
	DB	08dH
	DB	0baH
	DB	08dH
	DB	0daH
	DB	08dH
	DB	0daH
	DB	08dH
	DB	0dbH
	DB	095H
	DB	0daH
	DB	095H
	DB	0dbH
	DB	095H
	DB	0dbH
	DB	095H
	DB	0daH
	DB	095H
	DB	0dbH
	DB	095H
	DB	0dbH
	DB	09dH
	DB	0fbH
	DB	09dH
	DB	01bH
	DB	09eH
	DB	0fbH
	DB	09dH
	DB	0fbH
	DB	09dH
	DB	0daH
	DB	095H
	DB	0fbH
	DB	095H
	DB	0fbH
	DB	09dH
	DB	0fbH
	DB	09dH
	DB	0daH
	DB	095H
	DB	0fbH
	DB	09dH
	DB	0fbH
	DB	09dH
	DB	01bH
	DB	09eH
	DB	0daH
	DB	095H
	DB	0daH
	DB	095H
	DB	0faH
	DB	09dH
	DB	0faH
	DB	095H
	DB	0daH
	DB	09dH
	DB	0daH
	DB	095H
	DB	0faH
	DB	09dH
	DB	0daH
	DB	095H
	DB	0daH
	DB	095H
	DB	0daH
	DB	095H
	DB	0baH
	DB	08dH
	DB	0daH
	DB	08dH
	DB	0daH
	DB	095H
	DB	0baH
	DB	095H
	DB	0daH
	DB	095H
	DB	0daH
	DB	095H
	DB	0faH
	DB	09dH
	DB	0fbH
	DB	09dH
	DB	01bH
	DB	09eH
	DB	01bH
	DB	09eH
	DB	0faH
	DB	09dH
	DB	01aH
	DB	09eH
	DB	01bH
	DB	09eH
	DB	01bH
	DB	0a6H
	DB	03bH
	DB	0a6H
	DB	0faH
	DB	09dH
	DB	0daH
	DB	09dH
	DB	0fbH
	DB	09dH
	DB	0fbH
	DB	09dH
	DB	0faH
	DB	09dH
	DB	0faH
	DB	095H
	DB	0faH
	DB	095H
	DB	0daH
	DB	095H
	DB	0daH
	DB	095H
	DB	0baH
	DB	095H
	DB	0baH
	DB	095H
	DB	0baH
	DB	095H
	DB	0baH
	DB	08dH
	DB	0baH
	DB	095H
	DB	0baH
	DB	095H
	DB	0baH
	DB	08dH
	DB	0baH
	DB	08dH
	DB	0baH
	DB	095H
	DB	0daH
	DB	095H
	DB	0daH
	DB	095H
	DB	0daH
	DB	095H
	DB	0daH
	DB	09dH
	DB	0faH
	DB	09dH
	DB	0faH
	DB	0a5H
	DB	01bH
	DB	0aeH
	DB	01bH
	DB	0aeH
	DB	03bH
	DB	0aeH
	DB	05bH
	DB	0b6H
	DB	03bH
	DB	0b6H
	DB	03bH
	DB	0b6H
	DB	05bH
	DB	0b6H
	DB	01bH
	DB	0aeH
	DB	01bH
	DB	0a6H
	DB	0faH
	DB	0a5H
	DB	0daH
	DB	0a5H
	DB	0faH
	DB	09dH
	DB	0daH
	DB	09dH
	DB	0daH
	DB	09dH
	DB	0baH
	DB	09dH
	DB	0daH
	DB	09dH
	DB	0baH
	DB	095H
	DB	0baH
	DB	095H
	DB	0baH
	DB	095H
	DB	0baH
	DB	095H
	DB	0baH
	DB	095H
	DB	0baH
	DB	095H
	DB	0baH
	DB	095H
	DB	0baH
	DB	095H
	DB	0b9H
	DB	095H
	DB	0baH
	DB	095H
	DB	09aH
	DB	095H
	DB	0baH
	DB	095H
	DB	0baH
	DB	095H
	DB	0baH
	DB	095H
	DB	0baH
	DB	095H
	DB	0bbH
	DB	07dH
	DB	0bbH
	DB	07dH
	DB	0dbH
	DB	07dH
	DB	0bbH
	DB	07dH
	DB	0dbH
	DB	07dH
	DB	0bbH
	DB	07dH
	DB	0baH
	DB	07dH
	DB	0bbH
	DB	07dH
	DB	0bbH
	DB	07dH
	DB	0bbH
	DB	07dH
	DB	0bbH
	DB	07dH
	DB	0bbH
	DB	07dH
	DB	0baH
	DB	075H
	DB	0bbH
	DB	07dH
	DB	0bbH
	DB	07dH
	DB	0baH
	DB	075H
	DB	0bbH
	DB	07dH
	DB	09bH
	DB	07dH
	DB	09aH
	DB	075H
	DB	09aH
	DB	07dH
	DB	09aH
	DB	075H
	DB	0baH
	DB	07dH
	DB	09aH
	DB	075H
	DB	0baH
	DB	07dH
	DB	09aH
	DB	075H
	DB	09aH
	DB	07dH
	DB	0baH
	DB	07dH
	DB	09aH
	DB	07dH
	DB	09aH
	DB	07dH
	DB	0baH
	DB	075H
	DB	0baH
	DB	075H
	DB	09aH
	DB	07dH
	DB	0baH
	DB	07dH
	DB	09aH
	DB	07dH
	DB	0baH
	DB	07dH
	DB	0baH
	DB	075H
	DB	0baH
	DB	07dH
	DB	0baH
	DB	07dH
	DB	0baH
	DB	07dH
	DB	0baH
	DB	07dH
	DB	0baH
	DB	07dH
	DB	0baH
	DB	07dH
	DB	0baH
	DB	07dH
	DB	0baH
	DB	07dH
	DB	0baH
	DB	07dH
	DB	0baH
	DB	07dH
	DB	09aH
	DB	07dH
	DB	0baH
	DB	07dH
	DB	09aH
	DB	07dH
	DB	0baH
	DB	07dH
	DB	0baH
	DB	07dH
	DB	0baH
	DB	07dH
	DB	09aH
	DB	07dH
	DB	09aH
	DB	075H
	DB	09aH
	DB	07dH
	DB	09aH
	DB	07dH
	DB	0baH
	DB	07dH
	DB	09aH
	DB	075H
	DB	0baH
	DB	07dH
	DB	0baH
	DB	07dH
	DB	0baH
	DB	07dH
	DB	09aH
	DB	07dH
	DB	0baH
	DB	085H
	DB	0baH
	DB	085H
	DB	0baH
	DB	07dH
	DB	0daH
	DB	085H
	DB	0dbH
	DB	085H
	DB	0dbH
	DB	085H
	DB	0daH
	DB	085H
	DB	0dbH
	DB	085H
	DB	0dbH
	DB	08dH
	DB	0dbH
	DB	08dH
	DB	0dbH
	DB	085H
	DB	0dbH
	DB	085H
	DB	0dbH
	DB	085H
	DB	0daH
	DB	085H
	DB	0daH
	DB	085H
	DB	0dbH
	DB	085H
	DB	0daH
	DB	085H
	DB	0daH
	DB	08dH
	DB	0dbH
	DB	085H
	DB	0daH
	DB	085H
	DB	0daH
	DB	085H
	DB	0bbH
	DB	085H
	DB	0daH
	DB	085H
	DB	0daH
	DB	085H
	DB	0daH
	DB	08dH
	DB	0baH
	DB	085H
	DB	0dbH
	DB	085H
	DB	0baH
	DB	085H
	DB	0baH
	DB	085H
	DB	0daH
	DB	085H
	DB	0daH
	DB	085H
	DB	0daH
	DB	085H
	DB	0daH
	DB	08dH
	DB	0dbH
	DB	08dH
	DB	0daH
	DB	085H
	DB	0dbH
	DB	08dH
	DB	0dbH
	DB	08dH
	DB	0daH
	DB	08dH
	DB	0baH
	DB	085H
	DB	0baH
	DB	085H
	DB	0bbH
	DB	085H
	DB	0daH
	DB	085H
	DB	0baH
	DB	085H
	DB	0bbH
	DB	085H
	DB	0bbH
	DB	085H
	DB	0baH
	DB	085H
	DB	0daH
	DB	08dH
	DB	0baH
	DB	085H
	DB	0bbH
	DB	085H
	DB	0baH
	DB	085H
	DB	0baH
	DB	08dH
	DB	0baH
	DB	085H
	DB	0baH
	DB	085H
	DB	0daH
	DB	085H
	DB	0baH
	DB	085H
	DB	0baH
	DB	085H
	DB	0baH
	DB	085H
	DB	0baH
	DB	085H
	DB	0baH
	DB	085H
	DB	0baH
	DB	085H
	DB	0baH
	DB	08dH
	DB	0bbH
	DB	085H
	DB	0baH
	DB	085H
	DB	0daH
	DB	08dH
	DB	0baH
	DB	085H
	DB	0baH
	DB	085H
	DB	0baH
	DB	08dH
	DB	0baH
	DB	08dH
	DB	0dbH
	DB	08dH
	DB	0dbH
	DB	095H
	DB	0daH
	DB	08dH
	DB	0daH
	DB	08dH
	DB	0daH
	DB	08dH
	DB	0baH
	DB	08dH
	DB	0baH
	DB	08dH
	DB	0dbH
	DB	08dH
	DB	0dbH
	DB	08dH
	DB	0baH
	DB	08dH
	DB	0dbH
	DB	08dH
	DB	0daH
	DB	08dH
	DB	0dbH
	DB	08dH
	DB	0daH
	DB	095H
	DB	0daH
	DB	08dH
	DB	0daH
	DB	095H
	DB	0daH
	DB	095H
	DB	0daH
	DB	095H
	DB	0faH
	DB	095H
	DB	0fbH
	DB	09dH
	DB	01bH
	DB	09eH
	DB	01bH
	DB	09eH
	DB	01bH
	DB	09eH
	DB	01aH
	DB	09eH
	DB	0fbH
	DB	09dH
	DB	0fbH
	DB	09dH
	DB	01aH
	DB	09eH
	DB	01bH
	DB	09eH
	DB	0faH
	DB	09dH
	DB	0faH
	DB	095H
	DB	0faH
	DB	095H
	DB	0faH
	DB	09dH
	DB	0daH
	DB	095H
	DB	0daH
	DB	095H
	DB	0daH
	DB	095H
	DB	0daH
	DB	095H
	DB	0dbH
	DB	095H
	DB	0daH
	DB	095H
	DB	0daH
	DB	095H
	DB	0baH
	DB	08dH
	DB	0baH
	DB	08dH
	DB	0baH
	DB	08dH
	DB	0baH
	DB	08dH
	DB	0baH
	DB	08dH
	DB	0baH
	DB	095H
	DB	0daH
	DB	095H
	DB	0daH
	DB	095H
	DB	0faH
	DB	095H
	DB	0daH
	DB	095H
	DB	0daH
	DB	09dH
	DB	0fbH
	DB	09dH
	DB	01bH
	DB	09eH
	DB	0faH
	DB	09dH
	DB	0fbH
	DB	09dH
	DB	03bH
	DB	0a6H
	DB	03bH
	DB	0a6H
	DB	0fbH
	DB	09dH
	DB	0fbH
	DB	09dH
	DB	0faH
	DB	09dH
	DB	0dbH
	DB	095H
	DB	0daH
	DB	095H
	DB	0daH
	DB	095H
	DB	0baH
	DB	095H
	DB	0daH
	DB	095H
	DB	0baH
	DB	08dH
	DB	0baH
	DB	08dH
	DB	0baH
	DB	095H
	DB	0baH
	DB	08dH
	DB	0baH
	DB	08dH
	DB	0baH
	DB	08dH
	DB	0baH
	DB	095H
	DB	0baH
	DB	095H
	DB	0baH
	DB	095H
	DB	0baH
	DB	095H
	DB	0daH
	DB	095H
	DB	0daH
	DB	09dH
	DB	0daH
	DB	09dH
	DB	0fbH
	DB	0a5H
	DB	01bH
	DB	0a6H
	DB	01bH
	DB	0a6H
	DB	03bH
	DB	0aeH
	DB	03bH
	DB	0aeH
	DB	05bH
	DB	0b6H
	DB	05bH
	DB	0b6H
	DB	03bH
	DB	0aeH
	DB	01bH
	DB	0aeH
	DB	01bH
	DB	0aeH
	DB	0faH
	DB	0a5H
	DB	0faH
	DB	0a5H
	DB	0faH
	DB	09dH
	DB	0daH
	DB	0a5H
	DB	0daH
	DB	09dH
	DB	0daH
	DB	09dH
	DB	0daH
	DB	09dH
	DB	0daH
	DB	09dH
	DB	0baH
	DB	095H
	DB	0baH
	DB	095H
	DB	0baH
	DB	095H
	DB	09aH
	DB	095H
	DB	099H
	DB	095H
	DB	099H
	DB	08dH
	DB	09aH
	DB	095H
	DB	09aH
	DB	095H
	DB	0b9H
	DB	095H
	DB	099H
	DB	08dH
	DB	09aH
	DB	095H
	DB	0b9H
	DB	095H
	DB	099H
	DB	08dH
	DB	0baH
	DB	095H
	DB	0baH
	DB	095H
	DB	0bbH
	DB	07dH
	DB	0baH
	DB	07dH
	DB	0bbH
	DB	07dH
	DB	0baH
	DB	075H
	DB	0baH
	DB	07dH
	DB	0dbH
	DB	07dH
	DB	0bbH
	DB	07dH
	DB	0dbH
	DB	07dH
	DB	0dbH
	DB	07dH
	DB	0dbH
	DB	07dH
	DB	0daH
	DB	07dH
	DB	0baH
	DB	07dH
	DB	0bbH
	DB	07dH
	DB	0baH
	DB	07dH
	DB	0bbH
	DB	07dH
	DB	0baH
	DB	07dH
	DB	0bbH
	DB	07dH
	DB	0baH
	DB	07dH
	DB	0baH
	DB	075H
	DB	0bbH
	DB	07dH
	DB	0bbH
	DB	07dH
	DB	0baH
	DB	075H
	DB	09bH
	DB	07dH
	DB	0bbH
	DB	07dH
	DB	0bbH
	DB	07dH
	DB	0bbH
	DB	075H
	DB	0bbH
	DB	07dH
	DB	0bbH
	DB	07dH
	DB	0bbH
	DB	07dH
	DB	0bbH
	DB	07dH
	DB	0baH
	DB	07dH
	DB	0bbH
	DB	07dH
	DB	0bbH
	DB	07dH
	DB	0baH
	DB	07dH
	DB	0baH
	DB	07dH
	DB	0bbH
	DB	07dH
	DB	0baH
	DB	07dH
	DB	0bbH
	DB	07dH
	DB	0bbH
	DB	07dH
	DB	0baH
	DB	07dH
	DB	0bbH
	DB	07dH
	DB	0bbH
	DB	07dH
	DB	0bbH
	DB	07dH
	DB	0bbH
	DB	07dH
	DB	0baH
	DB	07dH
	DB	0bbH
	DB	07dH
	DB	0baH
	DB	07dH
	DB	0baH
	DB	07dH
	DB	0baH
	DB	07dH
	DB	0baH
	DB	07dH
	DB	09bH
	DB	07dH
	DB	0baH
	DB	07dH
	DB	0baH
	DB	07dH
	DB	0baH
	DB	07dH
	DB	09aH
	DB	07dH
	DB	09aH
	DB	075H
	DB	09aH
	DB	07dH
	DB	0baH
	DB	07dH
	DB	09aH
	DB	07dH
	DB	09aH
	DB	07dH
	DB	09aH
	DB	07dH
	DB	09aH
	DB	07dH
	DB	0baH
	DB	07dH
	DB	0bbH
	DB	07dH
	DB	0bbH
	DB	085H
	DB	0bbH
	DB	085H
	DB	0daH
	DB	085H
	DB	0dbH
	DB	085H
	DB	0dbH
	DB	085H
	DB	0daH
	DB	085H
	DB	0dbH
	DB	085H
	DB	0daH
	DB	085H
	DB	0faH
	DB	085H
	DB	0fbH
	DB	08dH
	DB	0dbH
	DB	08dH
	DB	0dbH
	DB	085H
	DB	0daH
	DB	08dH
	DB	0dbH
	DB	085H
	DB	0daH
	DB	085H
	DB	0dbH
	DB	08dH
	DB	0dbH
	DB	08dH
	DB	0baH
	DB	085H
	DB	0dbH
	DB	08dH
	DB	0baH
	DB	08dH
	DB	0bbH
	DB	085H
	DB	0dbH
	DB	08dH
	DB	0baH
	DB	085H
	DB	0baH
	DB	085H
	DB	0dbH
	DB	085H
	DB	0dbH
	DB	085H
	DB	0baH
	DB	085H
	DB	0bbH
	DB	085H
	DB	0daH
	DB	085H
	DB	0baH
	DB	085H
	DB	0baH
	DB	085H
	DB	0dbH
	DB	085H
	DB	0daH
	DB	085H
	DB	0baH
	DB	085H
	DB	0dbH
	DB	085H
	DB	0daH
	DB	085H
	DB	0dbH
	DB	08dH
	DB	0dbH
	DB	085H
	DB	0daH
	DB	085H
	DB	0dbH
	DB	085H
	DB	0daH
	DB	085H
	DB	0baH
	DB	085H
	DB	0bbH
	DB	085H
	DB	0bbH
	DB	085H
	DB	0baH
	DB	085H
	DB	0baH
	DB	085H
	DB	0baH
	DB	085H
	DB	0dbH
	DB	085H
	DB	0baH
	DB	085H
	DB	0baH
	DB	085H
	DB	0bbH
	DB	085H
	DB	0baH
	DB	085H
	DB	0daH
	DB	08dH
	DB	0baH
	DB	085H
	DB	0baH
	DB	085H
	DB	0dbH
	DB	08dH
	DB	0daH
	DB	085H
	DB	0baH
	DB	085H
	DB	0baH
	DB	08dH
	DB	0bbH
	DB	08dH
	DB	0dbH
	DB	085H
	DB	0baH
	DB	085H
	DB	0baH
	DB	085H
	DB	0dbH
	DB	08dH
	DB	0fbH
	DB	08dH
	DB	0dbH
	DB	08dH
	DB	0dbH
	DB	08dH
	DB	0daH
	DB	08dH
	DB	0baH
	DB	085H
	DB	0dbH
	DB	085H
	DB	0baH
	DB	085H
	DB	0dbH
	DB	08dH
	DB	0daH
	DB	08dH
	DB	0bbH
	DB	08dH
	DB	0daH
	DB	08dH
	DB	0fbH
	DB	095H
	DB	0daH
	DB	095H
	DB	0fbH
	DB	095H
	DB	0fbH
	DB	095H
	DB	0dbH
	DB	095H
	DB	0dbH
	DB	095H
	DB	0fbH
	DB	095H
	DB	0dbH
	DB	095H
	DB	0daH
	DB	095H
	DB	0fbH
	DB	09dH
	DB	0fbH
	DB	095H
	DB	01aH
	DB	09eH
	DB	0fbH
	DB	09dH
	DB	0fbH
	DB	095H
	DB	0faH
	DB	095H
	DB	01bH
	DB	09eH
	DB	03bH
	DB	09eH
	DB	01bH
	DB	09eH
	DB	0fbH
	DB	09dH
	DB	0daH
	DB	095H
	DB	0dbH
	DB	09dH
	DB	0daH
	DB	095H
	DB	0daH
	DB	095H
	DB	0daH
	DB	095H
	DB	0bbH
	DB	095H
	DB	0daH
	DB	095H
	DB	0daH
	DB	095H
	DB	0daH
	DB	095H
	DB	0baH
	DB	08dH
	DB	0baH
	DB	08dH
	DB	0daH
	DB	095H
	DB	0baH
	DB	08dH
	DB	0baH
	DB	095H
	DB	0baH
	DB	08dH
	DB	0baH
	DB	08dH
	DB	0baH
	DB	095H
	DB	0daH
	DB	095H
	DB	0daH
	DB	095H
	DB	0dbH
	DB	095H
	DB	0daH
	DB	095H
	DB	0faH
	DB	09dH
	DB	0faH
	DB	095H
	DB	01bH
	DB	09eH
	DB	01bH
	DB	0a6H
	DB	03bH
	DB	0a6H
	DB	01bH
	DB	0a6H
	DB	03bH
	DB	0a6H
	DB	01bH
	DB	0a6H
	DB	0daH
	DB	095H
	DB	0daH
	DB	095H
	DB	0dbH
	DB	095H
	DB	0baH
	DB	095H
	DB	0bbH
	DB	095H
	DB	0baH
	DB	08dH
	DB	0baH
	DB	08dH
	DB	0baH
	DB	08dH
	DB	0baH
	DB	08dH
	DB	09aH
	DB	08dH
	DB	0baH
	DB	08dH
	DB	0baH
	DB	08dH
	DB	09aH
	DB	08dH
	DB	0baH
	DB	08dH
	DB	0baH
	DB	08dH
	DB	0baH
	DB	095H
	DB	0baH
	DB	095H
	DB	0daH
	DB	095H
	DB	0daH
	DB	095H
	DB	0dbH
	DB	09dH
	DB	0faH
	DB	0a5H
	DB	0fbH
	DB	0a5H
	DB	01bH
	DB	0a6H
	DB	03bH
	DB	0aeH
	DB	03bH
	DB	0b6H
	DB	03bH
	DB	0b6H
	DB	03bH
	DB	0aeH
	DB	03bH
	DB	0aeH
	DB	01bH
	DB	0a6H
	DB	01bH
	DB	0a6H
	DB	0fbH
	DB	0a5H
	DB	0faH
	DB	09dH
	DB	0daH
	DB	09dH
	DB	0daH
	DB	09dH
	DB	0daH
	DB	09dH
	DB	0baH
	DB	095H
	DB	0baH
	DB	095H
	DB	0baH
	DB	095H
	DB	0baH
	DB	095H
	DB	0baH
	DB	095H
	DB	099H
	DB	095H
	DB	099H
	DB	08dH
	DB	099H
	DB	08dH
	DB	09aH
	DB	08dH
	DB	09aH
	DB	08dH
	DB	099H
	DB	08dH
	DB	09aH
	DB	08dH
	DB	099H
	DB	08dH
	DB	09aH
	DB	08dH
	DB	09aH
	DB	08dH
	DB	0baH
	DB	08dH
	DB	09aH
	DB	08dH
	DB	0baH
	DB	095H
	DB	0baH
	DB	075H
	DB	0baH
	DB	075H
	DB	0dbH
	DB	075H
	DB	0bbH
	DB	07dH
	DB	0daH
	DB	07dH
	DB	0daH
	DB	07dH
	DB	0dbH
	DB	07dH
	DB	0daH
	DB	07dH
	DB	0daH
	DB	07dH
	DB	0baH
	DB	07dH
	DB	0dbH
	DB	07dH
	DB	0daH
	DB	07dH
	DB	0bbH
	DB	07dH
	DB	0daH
	DB	075H
	DB	0daH
	DB	07dH
	DB	0daH
	DB	07dH
	DB	0baH
	DB	07dH
	DB	0dbH
	DB	07dH
	DB	0bbH
	DB	07dH
	DB	0baH
	DB	07dH
	DB	0bbH
	DB	07dH
	DB	0baH
	DB	07dH
	DB	0baH
	DB	07dH
	DB	0bbH
	DB	07dH
	DB	0daH
	DB	07dH
	DB	0baH
	DB	07dH
	DB	0baH
	DB	07dH
	DB	0daH
	DB	07dH
	DB	0baH
	DB	07dH
	DB	0baH
	DB	07dH
	DB	0baH
	DB	07dH
	DB	0baH
	DB	07dH
	DB	0bbH
	DB	07dH
	DB	0bbH
	DB	07dH
	DB	0baH
	DB	07dH
	DB	0bbH
	DB	07dH
	DB	0baH
	DB	07dH
	DB	0bbH
	DB	07dH
	DB	0bbH
	DB	07dH
	DB	0baH
	DB	07dH
	DB	0baH
	DB	07dH
	DB	0baH
	DB	07dH
	DB	0bbH
	DB	07dH
	DB	0baH
	DB	07dH
	DB	0bbH
	DB	07dH
	DB	0bbH
	DB	07dH
	DB	0dbH
	DB	07dH
	DB	0baH
	DB	07dH
	DB	0bbH
	DB	07dH
	DB	0bbH
	DB	07dH
	DB	0baH
	DB	07dH
	DB	0bbH
	DB	07dH
	DB	0baH
	DB	07dH
	DB	0bbH
	DB	07dH
	DB	0bbH
	DB	07dH
	DB	0baH
	DB	07dH
	DB	0baH
	DB	07dH
	DB	0bbH
	DB	07dH
	DB	0baH
	DB	07dH
	DB	0baH
	DB	07dH
	DB	0baH
	DB	07dH
	DB	0bbH
	DB	07dH
	DB	0bbH
	DB	085H
	DB	0baH
	DB	085H
	DB	0baH
	DB	07dH
	DB	0bbH
	DB	085H
	DB	0daH
	DB	085H
	DB	0dbH
	DB	085H
	DB	0dbH
	DB	085H
	DB	0daH
	DB	08dH
	DB	0daH
	DB	085H
	DB	0dbH
	DB	08dH
	DB	0dbH
	DB	08dH
	DB	0fbH
	DB	08dH
	DB	0faH
	DB	08dH
	DB	0daH
	DB	085H
	DB	0dbH
	DB	085H
	DB	0daH
	DB	085H
	DB	0dbH
	DB	085H
	DB	0bbH
	DB	085H
	DB	0baH
	DB	085H
	DB	0dbH
	DB	085H
	DB	0dbH
	DB	085H
	DB	0daH
	DB	085H
	DB	0bbH
	DB	085H
	DB	0dbH
	DB	085H
	DB	0daH
	DB	085H
	DB	0dbH
	DB	085H
	DB	0dbH
	DB	085H
	DB	0dbH
	DB	085H
	DB	0dbH
	DB	085H
	DB	0dbH
	DB	085H
	DB	0dbH
	DB	085H
	DB	0dbH
	DB	085H
	DB	0daH
	DB	085H
	DB	0baH
	DB	085H
	DB	0dbH
	DB	085H
	DB	0daH
	DB	085H
	DB	0daH
	DB	085H
	DB	0dbH
	DB	085H
	DB	0dbH
	DB	08dH
	DB	0baH
	DB	085H
	DB	0daH
	DB	085H
	DB	0baH
	DB	08dH
	DB	0bbH
	DB	08dH
	DB	0daH
	DB	085H
	DB	0baH
	DB	085H
	DB	0baH
	DB	08dH
	DB	0dbH
	DB	085H
	DB	0dbH
	DB	085H
	DB	0baH
	DB	08dH
	DB	0baH
	DB	085H
	DB	0baH
	DB	085H
	DB	0dbH
	DB	08dH
	DB	0dbH
	DB	08dH
	DB	0baH
	DB	085H
	DB	0baH
	DB	085H
	DB	0dbH
	DB	08dH
	DB	0daH
	DB	08dH
	DB	0daH
	DB	08dH
	DB	0dbH
	DB	08dH
	DB	0daH
	DB	085H
	DB	0baH
	DB	085H
	DB	0daH
	DB	085H
	DB	0baH
	DB	08dH
	DB	0dbH
	DB	08dH
	DB	0fbH
	DB	095H
	DB	0fbH
	DB	095H
	DB	0daH
	DB	08dH
	DB	0daH
	DB	08dH
	DB	0baH
	DB	08dH
	DB	0baH
	DB	08dH
	DB	0daH
	DB	08dH
	DB	0baH
	DB	08dH
	DB	0bbH
	DB	08dH
	DB	0daH
	DB	08dH
	DB	0dbH
	DB	08dH
	DB	0daH
	DB	08dH
	DB	0dbH
	DB	095H
	DB	0dbH
	DB	095H
	DB	0fbH
	DB	095H
	DB	0fbH
	DB	09dH
	DB	01bH
	DB	09eH
	DB	01bH
	DB	096H
	DB	0fbH
	DB	09dH
	DB	0faH
	DB	095H
	DB	0fbH
	DB	095H
	DB	03bH
	DB	09eH
	DB	0fbH
	DB	09dH
	DB	0faH
	DB	095H
	DB	0faH
	DB	095H
	DB	0faH
	DB	095H
	DB	0fbH
	DB	09dH
	DB	01bH
	DB	09eH
	DB	01bH
	DB	09eH
	DB	0faH
	DB	095H
	DB	0faH
	DB	095H
	DB	0dbH
	DB	095H
	DB	0dbH
	DB	095H
	DB	0faH
	DB	095H
	DB	0fbH
	DB	095H
	DB	0dbH
	DB	095H
	DB	0faH
	DB	095H
	DB	0daH
	DB	08dH
	DB	0daH
	DB	08dH
	DB	0baH
	DB	08dH
	DB	0daH
	DB	08dH
	DB	0baH
	DB	08dH
	DB	0baH
	DB	08dH
	DB	0baH
	DB	08dH
	DB	0baH
	DB	08dH
	DB	0baH
	DB	08dH
	DB	0daH
	DB	08dH
	DB	0daH
	DB	08dH
	DB	0daH
	DB	08dH
	DB	0baH
	DB	095H
	DB	0baH
	DB	08dH
	DB	0daH
	DB	095H
	DB	0daH
	DB	095H
	DB	0daH
	DB	095H
	DB	0fbH
	DB	09dH
	DB	0faH
	DB	09dH
	DB	01bH
	DB	09eH
	DB	03bH
	DB	0a6H
	DB	03bH
	DB	0a6H
	DB	01bH
	DB	0a6H
	DB	0faH
	DB	095H
	DB	0daH
	DB	08dH
	DB	0baH
	DB	095H
	DB	0baH
	DB	08dH
	DB	0baH
	DB	08dH
	DB	0baH
	DB	08dH
	DB	0baH
	DB	08dH
	DB	0baH
	DB	08dH
	DB	0baH
	DB	08dH
	DB	0baH
	DB	08dH
	DB	0baH
	DB	08dH
	DB	09aH
	DB	08dH
	DB	09aH
	DB	08dH
	DB	09aH
	DB	08dH
	DB	09aH
	DB	08dH
	DB	0baH
	DB	08dH
	DB	0baH
	DB	095H
	DB	0daH
	DB	095H
	DB	0baH
	DB	095H
	DB	0daH
	DB	095H
	DB	0daH
	DB	09dH
	DB	0faH
	DB	09dH
	DB	01bH
	DB	0a6H
	DB	01bH
	DB	0aeH
	DB	03bH
	DB	0aeH
	DB	05bH
	DB	0b6H
	DB	03bH
	DB	0b6H
	DB	03bH
	DB	0aeH
	DB	01bH
	DB	0aeH
	DB	01bH
	DB	0a6H
	DB	0faH
	DB	0a5H
	DB	0faH
	DB	09dH
	DB	0daH
	DB	09dH
	DB	0daH
	DB	09dH
	DB	0daH
	DB	095H
	DB	0baH
	DB	095H
	DB	0baH
	DB	095H
	DB	0baH
	DB	095H
	DB	0baH
	DB	095H
	DB	099H
	DB	095H
	DB	099H
	DB	095H
	DB	09aH
	DB	08dH
	DB	09aH
	DB	08dH
	DB	09aH
	DB	08dH
	DB	099H
	DB	08dH
	DB	099H
	DB	08dH
	DB	099H
	DB	08dH
	DB	09aH
	DB	08dH
	DB	09aH
	DB	08dH
	DB	099H
	DB	08dH
	DB	0b9H
	DB	08dH
	DB	099H
	DB	08dH
	DB	0baH
	DB	095H
	DB	0baH
	DB	08dH
	DB	0bbH
	DB	07dH
	DB	0baH
	DB	07dH
	DB	0baH
	DB	07dH
	DB	0bbH
	DB	07dH
	DB	0bbH
	DB	07dH
	DB	0bbH
	DB	07dH
	DB	0baH
	DB	07dH
	DB	0bbH
	DB	07dH
	DB	0bbH
	DB	07dH
	DB	0baH
	DB	07dH
	DB	0bbH
	DB	07dH
	DB	0baH
	DB	07dH
	DB	0baH
	DB	07dH
	DB	0bbH
	DB	07dH
	DB	0bbH
	DB	07dH
	DB	0bbH
	DB	07dH
	DB	0baH
	DB	07dH
	DB	0bbH
	DB	07dH
	DB	0baH
	DB	07dH
	DB	0baH
	DB	07dH
	DB	0bbH
	DB	07dH
	DB	0baH
	DB	07dH
	DB	0dbH
	DB	07dH
	DB	0daH
	DB	07dH
	DB	0baH
	DB	07dH
	DB	0baH
	DB	07dH
	DB	0bbH
	DB	07dH
	DB	0dbH
	DB	07dH
	DB	0baH
	DB	07dH
	DB	0bbH
	DB	07dH
	DB	0bbH
	DB	07dH
	DB	0baH
	DB	07dH
	DB	0bbH
	DB	07dH
	DB	0baH
	DB	07dH
	DB	0baH
	DB	07dH
	DB	0dbH
	DB	07dH
	DB	0baH
	DB	07dH
	DB	0dbH
	DB	07dH
	DB	0dbH
	DB	07dH
	DB	0dbH
	DB	07dH
	DB	0bbH
	DB	07dH
	DB	0bbH
	DB	07dH
	DB	0daH
	DB	07dH
	DB	0bbH
	DB	07dH
	DB	0baH
	DB	07dH
	DB	0daH
	DB	085H
	DB	0baH
	DB	07dH
	DB	0baH
	DB	07dH
	DB	0bbH
	DB	07dH
	DB	0baH
	DB	07dH
	DB	0baH
	DB	07dH
	DB	0daH
	DB	07dH
	DB	0bbH
	DB	085H
	DB	0baH
	DB	07dH
	DB	0bbH
	DB	07dH
	DB	0bbH
	DB	07dH
	DB	0baH
	DB	07dH
	DB	0bbH
	DB	07dH
	DB	0baH
	DB	07dH
	DB	0bbH
	DB	07dH
	DB	0baH
	DB	07dH
	DB	0baH
	DB	07dH
	DB	0baH
	DB	07dH
	DB	0baH
	DB	085H
	DB	0baH
	DB	085H
	DB	0baH
	DB	07dH
	DB	0dbH
	DB	085H
	DB	0daH
	DB	085H
	DB	0dbH
	DB	085H
	DB	0dbH
	DB	085H
	DB	0daH
	DB	08dH
	DB	0dbH
	DB	085H
	DB	0daH
	DB	085H
	DB	0daH
	DB	085H
	DB	0fbH
	DB	085H
	DB	0daH
	DB	085H
	DB	0daH
	DB	085H
	DB	0dbH
	DB	085H
	DB	0daH
	DB	085H
	DB	0baH
	DB	085H
	DB	0daH
	DB	085H
	DB	0dbH
	DB	085H
	DB	0daH
	DB	085H
	DB	0daH
	DB	085H
	DB	0daH
	DB	085H
	DB	0daH
	DB	085H
	DB	0dbH
	DB	08dH
	DB	0daH
	DB	085H
	DB	0daH
	DB	085H
	DB	0daH
	DB	08dH
	DB	0daH
	DB	085H
	DB	0dbH
	DB	085H
	DB	0baH
	DB	085H
	DB	0dbH
	DB	085H
	DB	0daH
	DB	085H
	DB	0daH
	DB	085H
	DB	0bbH
	DB	085H
	DB	0dbH
	DB	085H
	DB	0daH
	DB	085H
	DB	0daH
	DB	08dH
	DB	0dbH
	DB	08dH
	DB	0dbH
	DB	08dH
	DB	0daH
	DB	085H
	DB	0dbH
	DB	085H
	DB	0dbH
	DB	085H
	DB	0daH
	DB	08dH
	DB	0dbH
	DB	085H
	DB	0dbH
	DB	08dH
	DB	0daH
	DB	085H
	DB	0bbH
	DB	085H
	DB	0daH
	DB	08dH
	DB	0dbH
	DB	085H
	DB	0baH
	DB	08dH
	DB	0baH
	DB	085H
	DB	0baH
	DB	085H
	DB	0bbH
	DB	085H
	DB	0baH
	DB	085H
	DB	0dbH
	DB	08dH
	DB	0daH
	DB	085H
	DB	0baH
	DB	085H
	DB	0baH
	DB	085H
	DB	0daH
	DB	085H
	DB	0dbH
	DB	08dH
	DB	0daH
	DB	08dH
	DB	0fbH
	DB	08dH
	DB	0dbH
	DB	095H
	DB	0daH
	DB	08dH
	DB	0daH
	DB	08dH
	DB	0baH
	DB	085H
	DB	0dbH
	DB	08dH
	DB	0dbH
	DB	08dH
	DB	0dbH
	DB	08dH
	DB	0bbH
	DB	085H
	DB	0dbH
	DB	08dH
	DB	0daH
	DB	08dH
	DB	0dbH
	DB	08dH
	DB	0daH
	DB	08dH
	DB	0daH
	DB	08dH
	DB	0daH
	DB	095H
	DB	0fbH
	DB	095H
	DB	0faH
	DB	095H
	DB	0fbH
	DB	095H
	DB	0faH
	DB	09dH
	DB	01bH
	DB	09eH
	DB	01bH
	DB	09eH
	DB	0fbH
	DB	095H
	DB	01bH
	DB	096H
	DB	0fbH
	DB	095H
	DB	0faH
	DB	095H
	DB	0fbH
	DB	09dH
	DB	0faH
	DB	095H
	DB	01bH
	DB	09eH
	DB	01bH
	DB	09eH
	DB	0fbH
	DB	095H
	DB	0faH
	DB	095H
	DB	0fbH
	DB	095H
	DB	0daH
	DB	095H
	DB	0faH
	DB	095H
	DB	0faH
	DB	095H
	DB	0faH
	DB	095H
	DB	0dbH
	DB	095H
	DB	0daH
	DB	095H
	DB	0fbH
	DB	095H
	DB	0daH
	DB	095H
	DB	0baH
	DB	08dH
	DB	0baH
	DB	08dH
	DB	0baH
	DB	08dH
	DB	0baH
	DB	08dH
	DB	0baH
	DB	08dH
	DB	0baH
	DB	08dH
	DB	0daH
	DB	08dH
	DB	0daH
	DB	095H
	DB	0dbH
	DB	095H
	DB	0daH
	DB	095H
	DB	0dbH
	DB	095H
	DB	0bbH
	DB	08dH
	DB	0daH
	DB	08dH
	DB	0daH
	DB	08dH
	DB	0daH
	DB	095H
	DB	0dbH
	DB	095H
	DB	0fbH
	DB	095H
	DB	0fbH
	DB	09dH
	DB	01bH
	DB	0a6H
	DB	01bH
	DB	0a6H
	DB	01bH
	DB	09eH
	DB	0fbH
	DB	09dH
	DB	0daH
	DB	095H
	DB	0baH
	DB	095H
	DB	0baH
	DB	08dH
	DB	0baH
	DB	08dH
	DB	0baH
	DB	08dH
	DB	0baH
	DB	08dH
	DB	09aH
	DB	08dH
	DB	09aH
	DB	08dH
	DB	09aH
	DB	08dH
	DB	09aH
	DB	08dH
	DB	09aH
	DB	08dH
	DB	0b9H
	DB	08dH
	DB	099H
	DB	08dH
	DB	09aH
	DB	08dH
	DB	0baH
	DB	08dH
	DB	0baH
	DB	08dH
	DB	0baH
	DB	08dH
	DB	0baH
	DB	095H
	DB	0daH
	DB	095H
	DB	0daH
	DB	09dH
	DB	0faH
	DB	09dH
	DB	0fbH
	DB	0a5H
	DB	01bH
	DB	0a6H
	DB	03bH
	DB	0aeH
	DB	03bH
	DB	0aeH
	DB	05bH
	DB	0b6H
	DB	03bH
	DB	0aeH
	DB	01bH
	DB	0aeH
	DB	0faH
	DB	0a5H
	DB	0fbH
	DB	0a5H
	DB	0faH
	DB	09dH
	DB	0faH
	DB	09dH
	DB	0daH
	DB	09dH
	DB	0baH
	DB	095H
	DB	0daH
	DB	095H
	DB	0baH
	DB	095H
	DB	0baH
	DB	095H
	DB	0baH
	DB	095H
	DB	0baH
	DB	095H
	DB	099H
	DB	08dH
	DB	09aH
	DB	08dH
	DB	09aH
	DB	08dH
	DB	099H
	DB	08dH
	DB	099H
	DB	08dH
	DB	09aH
	DB	08dH
	DB	099H
	DB	08dH
	DB	099H
	DB	08dH
	DB	09aH
	DB	08dH
	DB	099H
	DB	08dH
	DB	09aH
	DB	08dH
	DB	0baH
	DB	08dH
	DB	09aH
	DB	08dH
	DB	099H
	DB	08dH
	DB	0baH
	DB	08dH
	DB	0baH
	DB	07dH
	DB	0baH
	DB	075H
	DB	0bbH
	DB	075H
	DB	0daH
	DB	07dH
	DB	0baH
	DB	075H
	DB	0dbH
	DB	075H
	DB	0dbH
	DB	07dH
	DB	0baH
	DB	07dH
	DB	0daH
	DB	075H
	DB	0dbH
	DB	07dH
	DB	0bbH
	DB	07dH
	DB	0baH
	DB	075H
	DB	0baH
	DB	07dH
	DB	0baH
	DB	07dH
	DB	0baH
	DB	07dH
	DB	0dbH
	DB	07dH
	DB	0daH
	DB	07dH
	DB	0daH
	DB	07dH
	DB	0daH
	DB	07dH
	DB	0dbH
	DB	07dH
	DB	0dbH
	DB	07dH
	DB	0daH
	DB	07dH
	DB	0dbH
	DB	07dH
	DB	0dbH
	DB	07dH
	DB	0dbH
	DB	085H
	DB	0dbH
	DB	07dH
	DB	0dbH
	DB	07dH
	DB	0dbH
	DB	07dH
	DB	0dbH
	DB	07dH
	DB	0daH
	DB	07dH
	DB	0daH
	DB	07dH
	DB	0dbH
	DB	07dH
	DB	0daH
	DB	07dH
	DB	0daH
	DB	07dH
	DB	0dbH
	DB	07dH
	DB	0dbH
	DB	07dH
	DB	0daH
	DB	07dH
	DB	0daH
	DB	07dH
	DB	0daH
	DB	085H
	DB	0dbH
	DB	085H
	DB	0daH
	DB	07dH
	DB	0dbH
	DB	07dH
	DB	0baH
	DB	07dH
	DB	0dbH
	DB	085H
	DB	0daH
	DB	07dH
	DB	0dbH
	DB	085H
	DB	0dbH
	DB	085H
	DB	0daH
	DB	07dH
	DB	0daH
	DB	085H
	DB	0dbH
	DB	07dH
	DB	0dbH
	DB	085H
	DB	0daH
	DB	085H
	DB	0dbH
	DB	07dH
	DB	0bbH
	DB	085H
	DB	0daH
	DB	07dH
	DB	0baH
	DB	07dH
	DB	0baH
	DB	07dH
	DB	0daH
	DB	085H
	DB	0dbH
	DB	085H
	DB	0baH
	DB	07dH
	DB	0dbH
	DB	085H
	DB	0bbH
	DB	085H
	DB	0baH
	DB	085H
	DB	0dbH
	DB	07dH
	DB	0dbH
	DB	085H
	DB	0daH
	DB	085H
	DB	0daH
	DB	085H
	DB	0daH
	DB	085H
	DB	0daH
	DB	085H
	DB	0dbH
	DB	08dH
	DB	0dbH
	DB	085H
	DB	0fbH
	DB	085H
	DB	0daH
	DB	08dH
	DB	0dbH
	DB	08dH
	DB	0dbH
	DB	085H
	DB	0daH
	DB	085H
	DB	0dbH
	DB	085H
	DB	0daH
	DB	085H
	DB	0daH
	DB	085H
	DB	0daH
	DB	085H
	DB	0dbH
	DB	085H
	DB	0daH
	DB	085H
	DB	0dbH
	DB	085H
	DB	0dbH
	DB	085H
	DB	0daH
	DB	085H
	DB	0daH
	DB	085H
	DB	0dbH
	DB	08dH
	DB	0dbH
	DB	08dH
	DB	0fbH
	DB	08dH
	DB	0faH
	DB	08dH
	DB	0dbH
	DB	08dH
	DB	0daH
	DB	085H
	DB	0daH
	DB	085H
	DB	0baH
	DB	085H
	DB	0bbH
	DB	085H
	DB	0daH
	DB	085H
	DB	0daH
	DB	085H
	DB	0dbH
	DB	085H
	DB	0baH
	DB	085H
	DB	0baH
	DB	085H
	DB	0faH
	DB	08dH
	DB	0fbH
	DB	08dH
	DB	0dbH
	DB	08dH
	DB	0daH
	DB	08dH
	DB	0dbH
	DB	085H
	DB	0baH
	DB	085H
	DB	0daH
	DB	08dH
	DB	0dbH
	DB	085H
	DB	0daH
	DB	085H
	DB	0baH
	DB	08dH
	DB	0bbH
	DB	085H
	DB	0daH
	DB	08dH
	DB	0dbH
	DB	085H
	DB	0daH
	DB	08dH
	DB	0dbH
	DB	08dH
	DB	0baH
	DB	08dH
	DB	0daH
	DB	08dH
	DB	0daH
	DB	085H
	DB	0dbH
	DB	085H
	DB	0daH
	DB	08dH
	DB	0daH
	DB	08dH
	DB	0fbH
	DB	08dH
	DB	0fbH
	DB	095H
	DB	0faH
	DB	08dH
	DB	0daH
	DB	08dH
	DB	0daH
	DB	08dH
	DB	0daH
	DB	08dH
	DB	0baH
	DB	08dH
	DB	0dbH
	DB	08dH
	DB	0daH
	DB	08dH
	DB	0daH
	DB	08dH
	DB	0dbH
	DB	08dH
	DB	0daH
	DB	08dH
	DB	0daH
	DB	08dH
	DB	0dbH
	DB	08dH
	DB	0daH
	DB	08dH
	DB	0daH
	DB	095H
	DB	0fbH
	DB	095H
	DB	0fbH
	DB	095H
	DB	01bH
	DB	09eH
	DB	01bH
	DB	09eH
	DB	01bH
	DB	09eH
	DB	0faH
	DB	095H
	DB	0faH
	DB	095H
	DB	0fbH
	DB	095H
	DB	0faH
	DB	09dH
	DB	0faH
	DB	095H
	DB	0fbH
	DB	095H
	DB	0fbH
	DB	095H
	DB	0fbH
	DB	09dH
	DB	01bH
	DB	09eH
	DB	0faH
	DB	095H
	DB	0faH
	DB	095H
	DB	0fbH
	DB	09dH
	DB	0faH
	DB	095H
	DB	0daH
	DB	095H
	DB	0fbH
	DB	095H
	DB	0daH
	DB	095H
	DB	0daH
	DB	095H
	DB	0daH
	DB	095H
	DB	0faH
	DB	095H
	DB	0faH
	DB	095H
	DB	0faH
	DB	095H
	DB	0dbH
	DB	095H
	DB	0daH
	DB	095H
	DB	0daH
	DB	08dH
	DB	0baH
	DB	08dH
	DB	0baH
	DB	08dH
	DB	0daH
	DB	08dH
	DB	0baH
	DB	08dH
	DB	0baH
	DB	08dH
	DB	0daH
	DB	08dH
	DB	0daH
	DB	08dH
	DB	0baH
	DB	095H
	DB	0daH
	DB	095H
	DB	0dbH
	DB	08dH
	DB	0daH
	DB	095H
	DB	0daH
	DB	095H
	DB	0daH
	DB	095H
	DB	0daH
	DB	095H
	DB	0fbH
	DB	09dH
	DB	01aH
	DB	09eH
	DB	01bH
	DB	09eH
	DB	01bH
	DB	09eH
	DB	01aH
	DB	09eH
	DB	0daH
	DB	095H
	DB	0daH
	DB	08dH
	DB	0baH
	DB	08dH
	DB	0baH
	DB	08dH
	DB	0baH
	DB	08dH
	DB	0baH
	DB	08dH
	DB	0baH
	DB	08dH
	DB	0baH
	DB	08dH
	DB	0baH
	DB	08dH
	DB	0baH
	DB	08dH
	DB	0baH
	DB	08dH
	DB	09aH
	DB	08dH
	DB	09aH
	DB	085H
	DB	0baH
	DB	08dH
	DB	099H
	DB	08dH
	DB	0baH
	DB	08dH
	DB	0b9H
	DB	08dH
	DB	0baH
	DB	095H
	DB	0daH
	DB	095H
	DB	0daH
	DB	095H
	DB	0daH
	DB	095H
	DB	0fbH
	DB	09dH
	DB	01bH
	DB	0a6H
	DB	01aH
	DB	0a6H
	DB	01bH
	DB	0aeH
	DB	03bH
	DB	0b6H
	DB	03bH
	DB	0aeH
	DB	03bH
	DB	0a6H
	DB	0faH
	DB	0a5H
	DB	0faH
	DB	0a5H
	DB	0faH
	DB	09dH
	DB	0dbH
	DB	09dH
	DB	0daH
	DB	09dH
	DB	0baH
	DB	095H
	DB	0baH
	DB	095H
	DB	0baH
	DB	095H
	DB	0baH
	DB	095H
	DB	0baH
	DB	095H
	DB	0b9H
	DB	095H
	DB	09aH
	DB	095H
	DB	099H
	DB	08dH
	DB	0baH
	DB	08dH
	DB	099H
	DB	08dH
	DB	099H
	DB	08dH
	DB	099H
	DB	08dH
	DB	07aH
	DB	08dH
	DB	099H
	DB	08dH
	DB	07aH
	DB	08dH
	DB	099H
	DB	08dH
	DB	079H
	DB	085H
	DB	099H
	DB	08dH
	DB	099H
	DB	08dH
	DB	079H
	DB	08dH
	DB	09aH
	DB	08dH
	DB	099H
	DB	08dH
	DB	0bbH
	DB	075H
	DB	0bbH
	DB	075H
	DB	0bbH
	DB	075H
	DB	0baH
	DB	075H
	DB	0bbH
	DB	07dH
	DB	0baH
	DB	07dH
	DB	0bbH
	DB	07dH
	DB	0bbH
	DB	07dH
	DB	0bbH
	DB	07dH
	DB	0bbH
	DB	07dH
	DB	0bbH
	DB	07dH
	DB	0bbH
	DB	07dH
	DB	0bbH
	DB	07dH
	DB	0baH
	DB	07dH
	DB	0bbH
	DB	07dH
	DB	0bbH
	DB	07dH
	DB	0dbH
	DB	07dH
	DB	0bbH
	DB	07dH
	DB	0dbH
	DB	07dH
	DB	0dbH
	DB	07dH
	DB	0baH
	DB	07dH
	DB	0dbH
	DB	07dH
	DB	0dbH
	DB	085H
	DB	0daH
	DB	085H
	DB	0dbH
	DB	07dH
	DB	0daH
	DB	085H
	DB	0daH
	DB	085H
	DB	0daH
	DB	085H
	DB	0dbH
	DB	085H
	DB	0dbH
	DB	07dH
	DB	0baH
	DB	07dH
	DB	0bbH
	DB	07dH
	DB	0bbH
	DB	07dH
	DB	0dbH
	DB	07dH
	DB	0baH
	DB	07dH
	DB	0bbH
	DB	07dH
	DB	0bbH
	DB	07dH
	DB	0baH
	DB	07dH
	DB	0bbH
	DB	07dH
	DB	0dbH
	DB	07dH
	DB	0baH
	DB	085H
	DB	0bbH
	DB	085H
	DB	0dbH
	DB	085H
	DB	0daH
	DB	07dH
	DB	0dbH
	DB	07dH
	DB	0bbH
	DB	085H
	DB	0dbH
	DB	085H
	DB	0daH
	DB	085H
	DB	0dbH
	DB	085H
	DB	0dbH
	DB	085H
	DB	0daH
	DB	07dH
	DB	0bbH
	DB	085H
	DB	0daH
	DB	085H
	DB	0dbH
	DB	085H
	DB	0bbH
	DB	085H
	DB	0dbH
	DB	085H
	DB	0bbH
	DB	085H
	DB	0bbH
	DB	085H
	DB	0baH
	DB	085H
	DB	0bbH
	DB	07dH
	DB	0bbH
	DB	07dH
	DB	0dbH
	DB	085H
	DB	0dbH
	DB	085H
	DB	0bbH
	DB	07dH
	DB	0bbH
	DB	085H
	DB	0bbH
	DB	07dH
	DB	0dbH
	DB	085H
	DB	0dbH
	DB	085H
	DB	0baH
	DB	085H
	DB	0daH
	DB	085H
	DB	0dbH
	DB	085H
	DB	0dbH
	DB	085H
	DB	0dbH
	DB	085H
	DB	0daH
	DB	085H
	DB	0dbH
	DB	085H
	DB	0dbH
	DB	085H
	DB	0dbH
	DB	085H
	DB	0dbH
	DB	085H
	DB	0dbH
	DB	085H
	DB	0dbH
	DB	085H
	DB	0daH
	DB	085H
	DB	0dbH
	DB	085H
	DB	0dbH
	DB	085H
	DB	0dbH
	DB	085H
	DB	0dbH
	DB	085H
	DB	0dbH
	DB	085H
	DB	0daH
	DB	085H
	DB	0dbH
	DB	085H
	DB	0daH
	DB	085H
	DB	0dbH
	DB	085H
	DB	0dbH
	DB	085H
	DB	0dbH
	DB	085H
	DB	0dbH
	DB	085H
	DB	0dbH
	DB	08dH
	DB	0dbH
	DB	08dH
	DB	0baH
	DB	085H
	DB	0bbH
	DB	085H
	DB	0dbH
	DB	085H
	DB	0bbH
	DB	085H
	DB	0bbH
	DB	085H
	DB	0fbH
	DB	08dH
	DB	0daH
	DB	08dH
	DB	0fbH
	DB	08dH
	DB	0daH
	DB	08dH
	DB	0dbH
	DB	08dH
	DB	0dbH
	DB	085H
	DB	0baH
	DB	085H
	DB	0baH
	DB	085H
	DB	0bbH
	DB	085H
	DB	0daH
	DB	085H
	DB	0baH
	DB	08dH
	DB	0baH
	DB	085H
	DB	0baH
	DB	085H
	DB	0daH
	DB	085H
	DB	0baH
	DB	085H
	DB	0dbH
	DB	08dH
	DB	0daH
	DB	085H
	DB	0baH
	DB	085H
	DB	0dbH
	DB	08dH
	DB	0dbH
	DB	08dH
	DB	0faH
	DB	08dH
	DB	0daH
	DB	08dH
	DB	0bbH
	DB	08dH
	DB	0daH
	DB	08dH
	DB	0daH
	DB	08dH
	DB	0dbH
	DB	08dH
	DB	0baH
	DB	085H
	DB	0daH
	DB	08dH
	DB	0dbH
	DB	08dH
	DB	0dbH
	DB	08dH
	DB	0daH
	DB	08dH
	DB	0daH
	DB	08dH
	DB	0dbH
	DB	08dH
	DB	0daH
	DB	08dH
	DB	0daH
	DB	08dH
	DB	0baH
	DB	08dH
	DB	0dbH
	DB	095H
	DB	0fbH
	DB	095H
	DB	0fbH
	DB	095H
	DB	0fbH
	DB	09dH
	DB	0fbH
	DB	095H
	DB	0fbH
	DB	095H
	DB	0fbH
	DB	095H
	DB	01bH
	DB	096H
	DB	0fbH
	DB	095H
	DB	0dbH
	DB	095H
	DB	0faH
	DB	095H
	DB	0faH
	DB	095H
	DB	0fbH
	DB	095H
	DB	0fbH
	DB	095H
	DB	0fbH
	DB	095H
	DB	0daH
	DB	08dH
	DB	0daH
	DB	095H
	DB	0dbH
	DB	095H
	DB	0daH
	DB	08dH
	DB	0daH
	DB	095H
	DB	0baH
	DB	08dH
	DB	0baH
	DB	08dH
	DB	0bbH
	DB	08dH
	DB	0dbH
	DB	095H
	DB	0daH
	DB	095H
	DB	0daH
	DB	095H
	DB	0daH
	DB	08dH
	DB	0daH
	DB	095H
	DB	0dbH
	DB	08dH
	DB	0daH
	DB	08dH
	DB	0baH
	DB	08dH
	DB	0baH
	DB	085H
	DB	0baH
	DB	08dH
	DB	0bbH
	DB	08dH
	DB	0baH
	DB	08dH
	DB	0baH
	DB	08dH
	DB	0baH
	DB	08dH
	DB	0daH
	DB	08dH
	DB	0baH
	DB	08dH
	DB	0baH
	DB	095H
	DB	0daH
	DB	095H
	DB	0dbH
	DB	095H
	DB	0dbH
	DB	095H
	DB	0fbH
	DB	095H
	DB	01bH
	DB	09eH
	DB	0fbH
	DB	09dH
	DB	0fbH
	DB	095H
	DB	0faH
	DB	095H
	DB	0fbH
	DB	09dH
	DB	0dbH
	DB	095H
	DB	0baH
	DB	08dH
	DB	0baH
	DB	08dH
	DB	0baH
	DB	08dH
	DB	0baH
	DB	08dH
	DB	09aH
	DB	08dH
	DB	0baH
	DB	08dH
	DB	09aH
	DB	085H
	DB	09aH
	DB	085H
	DB	09aH
	DB	08dH
	DB	0baH
	DB	085H
	DB	09aH
	DB	08dH
	DB	09aH
	DB	085H
	DB	099H
	DB	085H
	DB	09aH
	DB	08dH
	DB	0baH
	DB	08dH
	DB	0baH
	DB	08dH
	DB	0daH
	DB	095H
	DB	0baH
	DB	095H
	DB	0daH
	DB	095H
	DB	0faH
	DB	09dH
	DB	0faH
	DB	09dH
	DB	0faH
	DB	0a5H
	DB	01bH
	DB	0a6H
	DB	03bH
	DB	0aeH
	DB	05bH
	DB	0b6H
	DB	01bH
	DB	0aeH
	DB	0faH
	DB	0a5H
	DB	0fbH
	DB	09dH
	DB	0faH
	DB	09dH
	DB	0daH
	DB	09dH
	DB	0daH
	DB	095H
	DB	0baH
	DB	095H
	DB	0baH
	DB	095H
	DB	0baH
	DB	095H
	DB	0baH
	DB	095H
	DB	0baH
	DB	095H
	DB	099H
	DB	095H
	DB	0baH
	DB	08dH
	DB	099H
	DB	08dH
	DB	09aH
	DB	08dH
	DB	099H
	DB	08dH
	DB	09aH
	DB	08dH
	DB	099H
	DB	08dH
	DB	09aH
	DB	08dH
	DB	079H
	DB	085H
	DB	099H
	DB	085H
	DB	099H
	DB	085H
	DB	09aH
	DB	085H
	DB	09aH
	DB	08dH
	DB	079H
	DB	085H
	DB	099H
	DB	08dH
	DB	09aH
	DB	08dH
	DB	099H
	DB	08dH
	DB	09aH
	DB	08dH
	DB	0baH
	DB	075H
	DB	0baH
	DB	075H
	DB	0bbH
	DB	07dH
	DB	0baH
	DB	07dH
	DB	0bbH
	DB	075H
	DB	0bbH
	DB	07dH
	DB	0baH
	DB	075H
	DB	0dbH
	DB	07dH
	DB	0baH
	DB	07dH
	DB	0daH
	DB	07dH
	DB	0dbH
	DB	07dH
	DB	0daH
	DB	07dH
	DB	0dbH
	DB	07dH
	DB	0dbH
	DB	07dH
	DB	0daH
	DB	07dH
	DB	0dbH
	DB	07dH
	DB	0daH
	DB	07dH
	DB	0bbH
	DB	07dH
	DB	0dbH
	DB	07dH
	DB	0daH
	DB	07dH
	DB	0dbH
	DB	07dH
	DB	0dbH
	DB	085H
	DB	0dbH
	DB	085H
	DB	0dbH
	DB	07dH
	DB	0daH
	DB	07dH
	DB	0dbH
	DB	085H
	DB	0dbH
	DB	085H
	DB	0dbH
	DB	085H
	DB	0daH
	DB	085H
	DB	0dbH
	DB	085H
	DB	0daH
	DB	07dH
	DB	0daH
	DB	07dH
	DB	0bbH
	DB	085H
	DB	0baH
	DB	07dH
	DB	0baH
	DB	07dH
	DB	0bbH
	DB	07dH
	DB	0baH
	DB	07dH
	DB	0daH
	DB	07dH
	DB	0bbH
	DB	07dH
	DB	0dbH
	DB	07dH
	DB	0baH
	DB	07dH
	DB	0daH
	DB	07dH
	DB	0dbH
	DB	07dH
	DB	0baH
	DB	07dH
	DB	0baH
	DB	07dH
	DB	0daH
	DB	07dH
	DB	0dbH
	DB	07dH
	DB	0daH
	DB	085H
	DB	0dbH
	DB	085H
	DB	0dbH
	DB	085H
	DB	0daH
	DB	085H
	DB	0dbH
	DB	07dH
	DB	0dbH
	DB	085H
	DB	0daH
	DB	085H
	DB	0dbH
	DB	07dH
	DB	0dbH
	DB	085H
	DB	0dbH
	DB	085H
	DB	0dbH
	DB	085H
	DB	0baH
	DB	07dH
	DB	0dbH
	DB	085H
	DB	0baH
	DB	07dH
	DB	0daH
	DB	085H
	DB	0daH
	DB	085H
	DB	0dbH
	DB	085H
	DB	0baH
	DB	07dH
	DB	0baH
	DB	085H
	DB	0dbH
	DB	085H
	DB	0dbH
	DB	085H
	DB	0daH
	DB	07dH
	DB	0bbH
	DB	085H
	DB	0daH
	DB	085H
	DB	0daH
	DB	085H
	DB	0dbH
	DB	085H
	DB	0daH
	DB	085H
	DB	0dbH
	DB	085H
	DB	0daH
	DB	085H
	DB	0daH
	DB	085H
	DB	0dbH
	DB	085H
	DB	0daH
	DB	085H
	DB	0daH
	DB	085H
	DB	0dbH
	DB	085H
	DB	0daH
	DB	085H
	DB	0daH
	DB	085H
	DB	0daH
	DB	085H
	DB	0daH
	DB	085H
	DB	0dbH
	DB	085H
	DB	0daH
	DB	085H
	DB	0dbH
	DB	085H
	DB	0daH
	DB	085H
	DB	0daH
	DB	085H
	DB	0daH
	DB	085H
	DB	0dbH
	DB	085H
	DB	0dbH
	DB	08dH
	DB	0dbH
	DB	08dH
	DB	0daH
	DB	085H
	DB	0daH
	DB	08dH
	DB	0dbH
	DB	085H
	DB	0daH
	DB	08dH
	DB	0daH
	DB	08dH
	DB	0dbH
	DB	08dH
	DB	0fbH
	DB	08dH
	DB	0daH
	DB	08dH
	DB	0fbH
	DB	08dH
	DB	0fbH
	DB	08dH
	DB	0daH
	DB	08dH
	DB	0dbH
	DB	08dH
	DB	0daH
	DB	085H
	DB	0dbH
	DB	08dH
	DB	0dbH
	DB	085H
	DB	0daH
	DB	085H
	DB	0daH
	DB	085H
	DB	0dbH
	DB	085H
	DB	0dbH
	DB	085H
	DB	0baH
	DB	085H
	DB	0baH
	DB	085H
	DB	0dbH
	DB	085H
	DB	0dbH
	DB	08dH
	DB	0dbH
	DB	08dH
	DB	0daH
	DB	08dH
	DB	0daH
	DB	08dH
	DB	0daH
	DB	085H
	DB	0daH
	DB	085H
	DB	0daH
	DB	08dH
	DB	0dbH
	DB	08dH
	DB	0dbH
	DB	08dH
	DB	0daH
	DB	085H
	DB	0dbH
	DB	08dH
	DB	0dbH
	DB	08dH
	DB	0daH
	DB	08dH
	DB	0dbH
	DB	08dH
	DB	0dbH
	DB	08dH
	DB	0dbH
	DB	08dH
	DB	0dbH
	DB	08dH
	DB	0dbH
	DB	08dH
	DB	0dbH
	DB	08dH
	DB	0dbH
	DB	095H
	DB	01bH
	DB	096H
	DB	0fbH
	DB	095H
	DB	0faH
	DB	095H
	DB	0fbH
	DB	095H
	DB	0faH
	DB	095H
	DB	0faH
	DB	095H
	DB	0fbH
	DB	095H
	DB	0fbH
	DB	095H
	DB	0faH
	DB	095H
	DB	0fbH
	DB	095H
	DB	0fbH
	DB	095H
	DB	0fbH
	DB	095H
	DB	0daH
	DB	08dH
	DB	0daH
	DB	08dH
	DB	0daH
	DB	08dH
	DB	0daH
	DB	08dH
	DB	0baH
	DB	08dH
	DB	0daH
	DB	08dH
	DB	0baH
	DB	08dH
	DB	0bbH
	DB	08dH
	DB	0baH
	DB	08dH
	DB	0baH
	DB	08dH
	DB	0daH
	DB	08dH
	DB	0baH
	DB	08dH
	DB	0daH
	DB	08dH
	DB	0baH
	DB	08dH
	DB	0baH
	DB	08dH
	DB	0daH
	DB	08dH
	DB	0daH
	DB	08dH
	DB	0baH
	DB	08dH
	DB	0daH
	DB	08dH
	DB	0dbH
	DB	08dH
	DB	0baH
	DB	08dH
	DB	0baH
	DB	08dH
	DB	0dbH
	DB	095H
	DB	0dbH
	DB	08dH
	DB	0baH
	DB	08dH
	DB	0daH
	DB	08dH
	DB	0dbH
	DB	095H
	DB	0daH
	DB	095H
	DB	0daH
	DB	08dH
	DB	0daH
	DB	095H
	DB	0dbH
	DB	095H
	DB	01aH
	DB	09eH
	DB	0fbH
	DB	09dH
	DB	0fbH
	DB	09dH
	DB	0fbH
	DB	09dH
	DB	0faH
	DB	095H
	DB	0fbH
	DB	095H
	DB	0faH
	DB	095H
	DB	0daH
	DB	095H
	DB	0baH
	DB	08dH
	DB	0baH
	DB	08dH
	DB	09aH
	DB	085H
	DB	09aH
	DB	085H
	DB	09aH
	DB	085H
	DB	079H
	DB	085H
	DB	099H
	DB	085H
	DB	099H
	DB	085H
	DB	09aH
	DB	085H
	DB	09aH
	DB	085H
	DB	09aH
	DB	08dH
	DB	099H
	DB	08dH
	DB	0baH
	DB	08dH
	DB	0baH
	DB	08dH
	DB	0baH
	DB	08dH
	DB	0baH
	DB	095H
	DB	0daH
	DB	095H
	DB	0daH
	DB	095H
	DB	0daH
	DB	09dH
	DB	0fbH
	DB	09dH
	DB	01bH
	DB	0a6H
	DB	05bH
	DB	0aeH
	DB	07cH
	DB	0b6H
	DB	05bH
	DB	0b6H
	DB	01bH
	DB	0aeH
	DB	01bH
	DB	0a6H
	DB	0fbH
	DB	0a5H
	DB	0daH
	DB	09dH
	DB	0daH
	DB	095H
	DB	0daH
	DB	095H
	DB	0baH
	DB	095H
	DB	0baH
	DB	095H
	DB	0baH
	DB	095H
	DB	0baH
	DB	08dH
	DB	099H
	DB	08dH
	DB	09aH
	DB	08dH
	DB	09aH
	DB	095H
	DB	099H
	DB	08dH
	DB	099H
	DB	08dH
	DB	079H
	DB	085H
	DB	079H
	DB	085H
	DB	07aH
	DB	085H
	DB	079H
	DB	085H
	DB	099H
	DB	085H
	DB	079H
	DB	085H
	DB	079H
	DB	085H
	DB	079H
	DB	085H
	DB	09aH
	DB	08dH
	DB	079H
	DB	085H
	DB	09aH
	DB	085H
	DB	099H
	DB	085H
	DB	099H
	DB	08dH
	DB	09aH
	DB	08dH
	DB	0baH
	DB	075H
	DB	0bbH
	DB	07dH
	DB	0baH
	DB	07dH
	DB	0bbH
	DB	075H
	DB	0dbH
	DB	07dH
	DB	0daH
	DB	075H
	DB	0bbH
	DB	07dH
	DB	0dbH
	DB	07dH
	DB	0daH
	DB	07dH
	DB	0dbH
	DB	075H
	DB	0dbH
	DB	07dH
	DB	0baH
	DB	07dH
	DB	0dbH
	DB	07dH
	DB	0bbH
	DB	07dH
	DB	0baH
	DB	07dH
	DB	0dbH
	DB	07dH
	DB	0daH
	DB	07dH
	DB	0daH
	DB	07dH
	DB	0dbH
	DB	07dH
	DB	0daH
	DB	07dH
	DB	0daH
	DB	085H
	DB	0dbH
	DB	085H
	DB	0fbH
	DB	07dH
	DB	0dbH
	DB	07dH
	DB	0fbH
	DB	085H
	DB	0fbH
	DB	085H
	DB	0dbH
	DB	07dH
	DB	0fbH
	DB	085H
	DB	0dbH
	DB	07dH
	DB	0dbH
	DB	085H
	DB	0dbH
	DB	07dH
	DB	0daH
	DB	07dH
	DB	0baH
	DB	07dH
	DB	0daH
	DB	07dH
	DB	0dbH
	DB	07dH
	DB	0bbH
	DB	07dH
	DB	0baH
	DB	07dH
	DB	0baH
	DB	07dH
	DB	0dbH
	DB	07dH
	DB	0daH
	DB	07dH
	DB	0dbH
	DB	07dH
	DB	0baH
	DB	07dH
	DB	0dbH
	DB	07dH
	DB	0dbH
	DB	07dH
	DB	0dbH
	DB	085H
	DB	0daH
	DB	07dH
	DB	0dbH
	DB	07dH
	DB	0dbH
	DB	085H
	DB	0dbH
	DB	085H
	DB	0dbH
	DB	085H
	DB	0dbH
	DB	085H
	DB	0daH
	DB	07dH
	DB	0dbH
	DB	07dH
	DB	0daH
	DB	085H
	DB	0daH
	DB	085H
	DB	0daH
	DB	07dH
	DB	0daH
	DB	085H
	DB	0dbH
	DB	085H
	DB	0dbH
	DB	085H
	DB	0daH
	DB	085H
	DB	0daH
	DB	085H
	DB	0dbH
	DB	07dH
	DB	0daH
	DB	07dH
	DB	0baH
	DB	085H
	DB	0dbH
	DB	085H
	DB	0dbH
	DB	07dH
	DB	0baH
	DB	07dH
	DB	0baH
	DB	085H
	DB	0dbH
	DB	07dH
	DB	0dbH
	DB	085H
	DB	0daH
	DB	085H
	DB	0daH
	DB	085H
	DB	0dbH
	DB	085H
	DB	0dbH
	DB	085H
	DB	0dbH
	DB	085H
	DB	0daH
	DB	085H
	DB	0dbH
	DB	085H
	DB	0dbH
	DB	085H
	DB	0daH
	DB	085H
	DB	0daH
	DB	085H
	DB	0dbH
	DB	085H
	DB	0daH
	DB	085H
	DB	0daH
	DB	085H
	DB	0dbH
	DB	085H
	DB	0daH
	DB	085H
	DB	0daH
	DB	085H
	DB	0dbH
	DB	085H
	DB	0dbH
	DB	085H
	DB	0daH
	DB	085H
	DB	0dbH
	DB	085H
	DB	0daH
	DB	085H
	DB	0daH
	DB	085H
	DB	0faH
	DB	085H
	DB	0faH
	DB	085H
	DB	0dbH
	DB	085H
	DB	0dbH
	DB	085H
	DB	0daH
	DB	085H
	DB	0daH
	DB	085H
	DB	0daH
	DB	085H
	DB	0fbH
	DB	08dH
	DB	0daH
	DB	08dH
	DB	0fbH
	DB	08dH
	DB	0daH
	DB	085H
	DB	0daH
	DB	08dH
	DB	0faH
	DB	08dH
	DB	0fbH
	DB	08dH
	DB	0daH
	DB	08dH
	DB	0daH
	DB	08dH
	DB	0dbH
	DB	085H
	DB	0daH
	DB	085H
	DB	0daH
	DB	085H
	DB	0daH
	DB	085H
	DB	0baH
	DB	08dH
	DB	0baH
	DB	085H
	DB	0daH
	DB	08dH
	DB	0dbH
	DB	08dH
	DB	0faH
	DB	08dH
	DB	0daH
	DB	08dH
	DB	0dbH
	DB	08dH
	DB	0daH
	DB	085H
	DB	0daH
	DB	08dH
	DB	0dbH
	DB	08dH
	DB	0daH
	DB	08dH
	DB	0daH
	DB	08dH
	DB	0daH
	DB	085H
	DB	0dbH
	DB	08dH
	DB	0daH
	DB	08dH
	DB	0dbH
	DB	08dH
	DB	0daH
	DB	08dH
	DB	0daH
	DB	08dH
	DB	0faH
	DB	08dH
	DB	0daH
	DB	08dH
	DB	0daH
	DB	08dH
	DB	0fbH
	DB	095H
	DB	0fbH
	DB	095H
	DB	01bH
	DB	096H
	DB	0faH
	DB	095H
	DB	0faH
	DB	095H
	DB	0fbH
	DB	095H
	DB	0faH
	DB	08dH
	DB	0faH
	DB	095H
	DB	0faH
	DB	08dH
	DB	0fbH
	DB	095H
	DB	0fbH
	DB	095H
	DB	0faH
	DB	095H
	DB	0fbH
	DB	09dH
	DB	0fbH
	DB	095H
	DB	0daH
	DB	08dH
	DB	0daH
	DB	08dH
	DB	0baH
	DB	08dH
	DB	0baH
	DB	08dH
	DB	0daH
	DB	08dH
	DB	0baH
	DB	08dH
	DB	0baH
	DB	08dH
	DB	0baH
	DB	085H
	DB	0baH
	DB	085H
	DB	0baH
	DB	08dH
	DB	0baH
	DB	08dH
	DB	0baH
	DB	08dH
	DB	0baH
	DB	08dH
	DB	0baH
	DB	085H
	DB	0baH
	DB	08dH
	DB	0baH
	DB	08dH
	DB	0baH
	DB	085H
	DB	0baH
	DB	08dH
	DB	0baH
	DB	08dH
	DB	0dbH
	DB	095H
	DB	0daH
	DB	095H
	DB	0faH
	DB	095H
	DB	0dbH
	DB	095H
	DB	0faH
	DB	08dH
	DB	0daH
	DB	095H
	DB	0daH
	DB	095H
	DB	0baH
	DB	08dH
	DB	0daH
	DB	095H
	DB	0dbH
	DB	095H
	DB	0daH
	DB	08dH
	DB	0fbH
	DB	095H
	DB	01bH
	DB	09eH
	DB	0faH
	DB	09dH
	DB	0faH
	DB	095H
	DB	0fbH
	DB	095H
	DB	0faH
	DB	095H
	DB	0daH
	DB	095H
	DB	0daH
	DB	095H
	DB	0daH
